(dp1
V\u8000
I2143
sV\u6d89
I729
sV\u8c08
I801
sV\u4f0a
I1156
sV\u4e9f
I2877
sV\u6d1e
I1561
sV\u54a3
I4928
sV\u7f2a
I2990
sV\u6cb3
I614
sV\u4e34
I788
sV\u72b7
I4470
sV\u5438
I825
sV\u5a3c
I3359
sV\u7ebf
I361
sV\u53cd
I392
sV\u724c
I748
sV\u96cf
I3556
sV\u59d1
I1849
sV\ufe54
I4766
sV\u5362
I1898
sV\u77e5
I347
sV\u9664
I475
sV\u5f6a
I2643
sV\u95f9
I1521
sV\u5eff
I4080
sV\u8986
I1491
sV\u5e94
I228
sV\u6498
I5675
sV\u5121
I4749
sV\u5d29
I2662
sV\u82ac
I2260
sV\u51b6
I2988
sV\u9abc
I3203
sV\u564f
I5514
sV\u6e5f
I5566
sV\u56e4
I2631
sV\u5ce8
I3822
sVk
I1628
sV\u62ec
I845
sV\u6ef4
I2269
sV\u987b
I925
sV\u5b7d
I4042
sV\u9e7f
I2227
sV\u6c89
I1500
sV\u4e0a
I21
sV\u540e
I44
sV\u7891
I2119
sV\u9910
I766
sV\u6016
I2061
sV\u8499
I1429
sV\u90a1
I5248
sV\u67af
I2817
sV\u4f34
I1169
sV\u73b7
I4954
sV\u79bb
I558
sV\u7fbf
I4869
sV\u58d1
I4624
sV\u7f54
I4039
sV\u76e5
I5360
sV\u88f1
I4388
sV\u53f7
I450
sV\u7076
I2949
sV\u59fb
I1855
sV\u5fff
I4651
sV\u8282
I257
sV\u2605
I2717
sV\u538c
I2467
sV\u8317
I3465
sV\u891b
I5046
sV\u5021
I1920
sV\u71a0
I3563
sV\u9523
I3005
sV\u7a3d
I3019
sVA
I716
sV\u62c2
I3661
sV\u514b
I519
sV\u574f
I1221
sV\u9e55
I4762
sV\u80d6
I2042
sV\u6f5f
I4923
sV\u51e0
I407
sV\u5de8
I1054
sV\u8d73
I4856
sV\u7bfc
I5365
sV\u9f7f
I2292
sV\u8200
I4535
sV\u8404
I2346
sV\u6316
I1671
sV\u56a3
I2974
sV\u7b26
I1227
sV\u62ab
I1752
sV\u70b7
I5512
sV\u7cbf
I5679
sV\u9f3e
I4471
sV\u6240
I153
sV\u6444
I756
sV\u704c
I2323
sV\u4f5e
I4909
sV\u5162
I3691
sV\u5b66
I83
sV\u7fe9
I3198
sV\u81ed
I2328
sV\u8bf1
I1894
sV\u8df5
I1220
sV\u6807
I269
sV\u4e88
I924
sV\u8d8a
I521
sV\u740f
I5190
sV\u9992
I2940
sV\u5c94
I3828
sV\u8017
I1707
sV\u8c1f
I4247
sV\u5321
I3309
sV\u5f29
I3902
sV\u7ea8
I4847
sV\u6d35
I5477
sV\u55ba
I5301
sV\u793d
I5575
sV\u61c2
I1835
sV\u914d
I609
sV\u79d2
I1718
sV\u83d6
I5401
sV\u6a5b
I5656
sV\u6c5f
I440
sV\u8fde
I565
sV\u7663
I4554
sV\u60ec
I3647
sV\u76f8
I183
sV\u9a7b
I988
sV\u597d
I130
sV\u9c7f
I4250
sV\u6485
I5039
sV\u6e89
I3282
sV\u560e
I3386
sV\u7a91
I3038
sV\u7c95
I4805
sV\u6216
I395
sV\u57a3
I2977
sV\u94a5
I2600
sV\u7c2a
I5020
sV\u65af
I477
sV\u6fb3
I1282
sV\u9e3e
I4417
sV\u714c
I2637
sV\u7b50
I3620
sV\uff38
I5609
sV\u66d9
I2810
sV\u4e5e
I3049
sV\u72e1
I3718
sV\u7ee9
I1099
sV\u80ed
I4946
sV\u666e
I747
sV\u96f9
I4755
sV\uff15
I2112
sV\u5bfb
I1250
sV\u5dff
I4814
sV\u4f88
I2504
sV\u300d
I3663
sV\u518c
I1449
sV\uff13
I1765
sV\u699c
I1435
sV\u8d1f
I550
sV\u75a4
I3074
sV\u6a31
I2969
sV\u8bb0
I95
sV\u8db4
I2936
sV\u5ebe
I3161
sV\u0445
I5560
sV\u8e49
I4879
sV\u6cca
I2392
sV\u904d
I1306
sV\u76ce
I3366
sV\u5f53
I124
sV\u53e0
I2204
sV\u7763
I856
sV\u90e2
I4609
sV\u55e4
I5111
sV\u9ae6
I3487
sV\u836b
I3513
sV\u9177
I1957
sV\u77f8
I3818
sV\u7b95
I4587
sV\u2018
I955
sV\u631a
I2891
sV\u50a3
I4855
sV\u5ea7
I822
sV\u68b3
I2388
sV\u9536
I5180
sV\u5e3c
I3976
sV\u7abf
I3739
sV\u80c3
I1410
sV\u6848
I237
sV\u764c
I1226
sV\u98d3
I4431
sV\u8058
I1616
sV\u79e9
I1832
sV\u5b6a
I4456
sV\u6f72
I5349
sV\u8bf5
I3091
sV\u7576
I5175
sV\u5cfb
I2471
sV\u797e
I5440
sV\u8782
I4063
sV\u5c90
I2852
sV\u8c1b
I4706
sV\u6e9c
I2761
sV\u74a0
I4849
sV\u5929
I84
sV\u672d
I4770
sV\u6d31
I4045
sV\u90b8
I2479
sV\uff3d
I4274
sV\u9ebc
I5387
sV\u59be
I3376
sV\u6dc6
I3520
sV\u71ce
I4141
sV\u6657
I3963
sV\u6c5b
I3645
sV\u89de
I5487
sV\u52e4
I1391
sV\u846b
I3170
sV\u826f
I831
sV\u6cf0
I1207
sV\u9677
I1478
sV\u5179
I2398
sV\u9c7b
I5667
sV\u7efc
I939
sV\u9a7f
I3234
sV\u8304
I2262
sV\u7c91
I4096
sV\u7a95
I4378
sV\u621a
I2118
sV\u7622
I4544
sV\u65ab
I5586
sV.
I176
sV\u5f3c
I4667
sV\u81c3
I4390
sV\u8fc7
I56
sV\u56cd
I4721
sV\u7b54
I1079
sV\u5662
I4048
sV\u9968
I4916
sV\u5a6a
I4656
sV\u86ed
I5509
sV\u7476
I2568
sV\u727a
I2638
sV\u5bff
I1586
sV\u8682
I3613
sV\u9e92
I3616
sV\u8717
I2816
sV\u4e1d
I1069
sV\u6f9c
I2758
sV\u5225
I5279
sV\u662d
I2224
sV\u4eb2
I473
sV\u6a35
I4001
sV\u8bb4
I4280
sV\u964d
I684
sV\u534f
I417
sV\u5953
I4862
sV\u7ed2
I2401
sV\u84d6
I5601
sV\u53e4
I711
sV\u59e8
I2132
sV\u67ec
I3415
sV\u836f
I738
sV\u5e7d
I2190
sV\u7ffc
I1988
sV\u6781
I559
sV\u8004
I4571
sV\u6b89
I3736
sV\u4e9b
I217
sV\u611a
I3321
sV\u52a3
I1893
sV\uff26
I5100
sV\u60af
I4631
sV\u4e30
I919
sV\u8d32
I4488
sV\u5238
I1761
sV\u5c3c
I983
sV\u5fd1
I3782
sV\ufe50
I5375
sV\u9ad3
I2893
sV\u8258
I1786
sV\u6ddd
I4142
sV\u71e5
I2244
sV\u5f66
I2506
sV\u636e
I150
sV\u717a
I5602
sV\u7b7e
I1008
sV\u8f86
I666
sV\u548c
I23
sV\u5e90
I2732
sV\u6298
I1244
sV\u7aa8
I3344
sV\u6f31
I3082
sV\u88b4
I5563
sV\u5bbe
I1222
sV\u954d
I4089
sV\u504f
I1411
sV\u9955
I4397
sV\u6e5b
I3094
sV\u8bde
I2014
sV\u56e0
I184
sV\u866b
I2286
sVo
I712
sV\u72f8
I3482
sV\u987f
I1298
sV\u8700
I2798
sV\u950c
I3220
sV\u9f10
I5508
sV\u8299
I3266
sV\u4f9b
I517
sV\u7422
I3257
sV\u67ab
I3185
sV\u4f30
I1389
sV\u8c32
I4602
sV\u9636
I1114
sV\u6740
I935
sV\u97cb
I5565
sV\u54cd
I603
sV\u754c
I546
sV\u91cf
I215
sV\uff50
I4964
sV\u58d5
I4525
sV\u62d9
I3815
sV\u9760
I1051
sV\u5462
I1077
sV\u626e
I1666
sV\u6c72
I3395
sV\u55f7
I4823
sV\u5ffb
I3931
sV\u59ff
I1950
sV\u8482
I2004
sV\u770b
I194
sV\u5f90
I1116
sV\u8517
I3449
sV\u6398
I1905
sV\u77a0
I3711
sV\u5a29
I3213
sV\u642d
I1203
sV\u8fb0
I2554
sV\u7239
I2230
sV\u5abe
I5640
sV\u64c2
I4252
sVE
I1157
sV\u9e51
I4315
sV\u80da
I3641
sV\u57e0
I2326
sV\u94e2
I4199
sV\u51e4
I1769
sV\u5be8
I2108
sV\u65ec
I1817
sV\u4e71
I1189
sV\u997f
I2494
sV\uff54
I4466
sV\u7b8d
I3603
sV\u5d0e
I3103
sV\u9010
I993
sV\u9614
I2242
sV\u7126
I1464
sV\u6eaf
I2743
sV\u8d2e
I3654
sV\u5c38
I1730
sV\u76bf
I4279
sV\u6840
I5144
sV\u4fc5
I5286
sV\u6e44
I4291
sV\u82c7
I3811
sV\u9ecf
I2711
sV\u51d1
I2453
sV\u57d5
I4938
sV\u4f5a
I4182
sV\u5b62
I4666
sV\u9e64
I2733
sV\u576a
I2585
sV\u8bed
I805
sV\u6d6e
I1589
sV\u50fb
I3171
sV\u56ff
I4353
sV\u7413
I5380
sV\u5f25
I2309
sV\u7ea4
I2116
sV\u74a8
I3716
sV\u6735
I2378
sV\u9cb8
I2745
sV\u8941
I4944
sV\u6bc2
I4073
sV\u8549
I2607
sV\u5453
I5410
sV\u665f
I3299
sV\u7267
I1800
sV\u54e8
I2952
sV\u886b
I2708
sV\u97ea
I4740
sV\u60f0
I4271
sV\u8473
I4453
sV\u66f4
I226
sV\u72fc
I2341
sV\u6881
I1268
sV\u6e85
I3431
sV\u7a8d
I3532
sV\u5212
I481
sV\u6816
I2769
sV\u6e1a
I4464
sV\u829d
I1923
sV\u641e
I1356
sV\u94a9
I2481
sV\u762a
I4327
sV\u77bf
I3586
sV\u8dc3
I1710
sV\u4ec5
I572
sV\u83c7
I2555
sV\u6548
I458
sV\u8d58
I3762
sV\u78e1
I4953
sV\u5a62
I4511
sV\u7ee5
I3694
sV\u566a
I2814
sV\u4fef
I2764
sV\u80f1
I3425
sV\u51fb
I703
sV\u747e
I3592
sV\u4f84
I2721
sV\u6307
I353
sV\u8086
I2594
sV\u868a
I3629
sV\u5b8c
I346
sV\uff0f
I2890
sV\u3011
I1261
sV\u5821
I2098
sV\u7fa4
I418
sV\u5429
I4402
sV\u6635
I3436
sV\u723d
I2179
sV\u60c6
I5005
sV\u594b
I1405
sV\u9051
I4986
sV\u72d2
I5357
sV\u9655
I1042
sV\u675f
I1153
sV\u90e6
I5120
sV\u55e8
I3961
sV\u96ea
I781
sV\u8f6f
I1120
sV\u67f4
I2218
sV\u5c79
I3337
sV\u527d
I4428
sV\u6b81
I3867
sV\u8a00
I515
sV\u6d85
I3453
sV\u8c04
I4967
sV\u6789
I3120
sV\u5112
I2671
sV\u8f99
I3118
sV\u819d
I2508
sV\u201c
I11
sV\u5e38
I230
sV\u503c
I611
sV\u973e
I1480
sV\u9acb
I4348
sV\u784c
I4853
sV\u9ccf
I5404
sV\u53d1
I28
sV\u005c
I5077
sV\u7be1
I3502
sV\u5962
I1924
sV\u5366
I2770
sV\u77e9
I2739
sV\u9668
I4299
sV\u556a
I3720
sV\u6f6e
I1396
sV\u83f1
I3217
sV\u777e
I3346
sV\u8386
I3382
sV\u7a0b
I289
sV\u9192
I996
sV\u5494
I4888
sV\u4f19
I1145
sV\u6e98
I5467
sV\u821b
I4600
sV\u7aa0
I5256
sV\u9e23
I1971
sV\u7ca4
I2663
sV\u5729
I3456
sV\u692d
I4081
sV\u4fae
I3146
sV\u5bb6
I37
sV\u9eb8
I4445
sV\u4e43
I1941
sV\u8d45
I4523
sV\u63c6
I5338
sV\u8749
I3574
sV\u5c4f
I1599
sV\u7fce
I4717
sV\u9555
I4443
sV\u4ed8
I782
sV\u625b
I2803
sV\u8dda
I4287
sV\u5ce4
I5123
sV\u95ea
I2055
sV\u9877
I3095
sV\u5f79
I1689
sV\u7ef8
I2354
sV\u517d
I2209
sV\u6c85
I4767
sV\u8708
I4407
sV\u788d
I1778
sV\u5012
I964
sV\u809d
I1758
sV\u9aa1
I4032
sV\u742a
I2493
sV\u6daf
I2406
sV\u8e2e
I4695
sV2
I18
sV\u73bb
I1909
sV\u6748
I5102
sV\u97d3
I4792
sV\u7554
I3072
sV\u6e6e
I5003
sV\u82f1
I575
sV\u7a76
I493
sV\u53fb
I5220
sV\u90fd
I106
sV\u767e
I605
sV\u8882
I3585
sV\u7b0b
I3063
sV\u5390
I5233
sV\u5594
I3837
sV\u4e19
I2987
sV\u9127
I5564
sV\u4eae
I772
sV\u5cba
I5188
sV\u4f43
I5172
sV\u68c2
I5513
sV\u62c6
I1303
sV\u7ece
I2372
sV\u4fd8
I3207
sV\u86de
I5630
sV\u7167
I378
sV\u9977
I3292
sV\u957f
I94
sV\u8c00
I5330
sV\u7591
I689
sV\u7f22
I3860
sV\u7526
I5593
sV\u6cab
I2604
sV\u732a
I1433
sV3
I34
sV\u7eb7
I912
sV\u6c40
I2859
sV\u6a44
I2432
sV\u86c7
I2403
sV\u5fcd
I1646
sV\u55d1
I4208
sV\u90d3
I5682
sV\u8858
I5475
sV\u5f62
I491
sV\u5566
I2134
sV\u9068
I4819
sV\u8fed
I3156
sV\u6772
I5084
sV\u5ef7
I2013
sV\u52ff
I2651
sV\u6607
I5209
sV\u2109
I4581
sV\u7c0b
I5174
sV\u838a
I5230
sV\u5490
I3083
sV\u821f
I2393
sV\u8eac
I2959
sV\u96bc
I5648
sV\u8d41
I2182
sV\u6fc2
I5095
sV\u7f4d
I4309
sV\u5c4b
I1071
sV\u9551
I2734
sV\u8bda
I1271
sV\u8c6b
I2518
sVs
I966
sV\u62f4
I3650
sV\u5979
I234
sV\u76fc
I2115
sV\u6c81
I3119
sV\u6089
I775
sV\u9510
I2097
sV\u4f97
I5272
sV\u869d
I4366
sV\u9aa5
I3775
sV\u7426
I2158
sV\u722a
I3488
sV\u5938
I2247
sV\u903e
I2350
sV\u6148
I1664
sV\uff4c
I5594
sV\u54d1
I3035
sV\u52d5
I5458
sV\u66dd
I904
sV\u5e62
I3168
sV\u7ae5
I952
sV\u5466
I4504
sV\u70e9
I4564
sV\u526a
I2185
sV\u7a7a
I426
sV\u707e
I1133
sV\u828a
I4487
sV\u5f8c
I4812
sV\u6998
I5626
sV\u679c
I249
sV\u5a25
I2460
sV\u5029
I2686
sV\u71a8
I5045
sV\u6e2d
I2131
sV\u85b0
I3982
sV\u83b4
I4490
sV\u8c41
I3259
sVI
I1027
sV\u9e4d
I5498
sV\u9451
I5184
sV\u76d2
I2092
sV\u655b
I2625
sV\u635f
I965
sV\u80de
I1660
sV\u9ee2
I4797
sV\u8d6b
I1516
sV\u6fec
I5312
sV\u63f4
I1177
sV\u79f8
I3340
sV\u6389
I1138
sV\u7791
I5108
sV\u9610
I2632
sV\u9014
I1102
sV\u631e
I4627
sV\u7d22
I846
sV\u99a5
I4023
sV\u54a7
I3269
sV\u68af
I1460
sV\u543c
I3255
sV\u933e
I5142
sV\u6248
I4510
sV\u5dcd
I2756
sV\u98cf
I4906
sV\u6bd9
I2845
sV\u7fe1
I4294
sV\u5766
I1208
sV\u73e9
I4537
sV\u6572
I2020
sV\u797a
I3225
sV\u95fd
I1998
sV\u737e
I3693
sV\u818a
I3229
sV\u5c8c
I4765
sV\u8c17
I4899
sV\u7ea0
I1443
sV\u6731
I1110
sV\u80b4
I3116
sV\u9ab8
I3271
sV\u94bc
I4597
sV\u8349
I1065
sV\u61ca
I3949
sV\u9751
I4960
sV\u75d2
I2840
sV\u6c57
I1818
sV\u58e4
I2325
sV\u97e6
I1744
sV\u66f0
I3166
sV\u8273
I1591
sV\u60f4
I4642
sV\u907f
I1107
sV\u6885
I1263
sV\u6289
I4003
sV\u7691
I3834
sV\u5412
I5212
sV\u7095
I3995
sV\u5ba3
I686
sV\u55a7
I3418
sV\u7626
I1838
sV\u63b3
I4162
sV\u77bb
I2979
sV\u4ec1
I1609
sV\u8bc3
I4876
sV\u7750
I2724
sV\u4e56
I2819
sV\u72e9
I3980
sV\u5df7
I2078
sV\u51ff
I3238
sV\u8c82
I3554
sV\uff0b
I3721
sV\u9492
I5208
sV\u3015
I3515
sV\u659c
I2312
sV\u79a4
I5129
sV\u5229
I250
sV\u6631
I3836
sV\u6035
I5157
sV\u5eb6
I3978
sV\u52be
I4288
sV\u8845
I2748
sV\u60ca
I1011
sV\u594f
I1929
sV\u5353
I2066
sV\u74d2
I5385
sV\u82de
I4509
sV\u5fe0
I1466
sV\u53e8
I3327
sV\u90ea
I4926
sV\u6dec
I5335
sV\u547d
I744
sV\u75fc
I4151
sV\u917f
I2528
sV\u9000
I814
sV\u7785
I3945
sV\u5f0a
I2077
sV\u820c
I2080
sV\u7116
I4043
sV\u5e9f
I1604
sV\u70ab
I2583
sV\u6f2a
I3727
sV\u952e
I1178
sV\u5830
I3093
sV\u7cb3
I3866
sV\u9b32
I5494
sV\u8d3e
I1811
sV\u94c3
I2581
sV\u86cf
I5452
sV\u6850
I2597
sV\u575a
I622
sV\u7bdd
I5244
sV\u67e5
I210
sV\u8bfd
I3106
sV\u4eff
I1865
sV\u5080
I4748
sV\u7403
I512
sV\u9986
I759
sV\u9f8a
I5189
sV\u660f
I2035
sV\u6c13
I4383
sV\u4e94
I528
sV\u7a9c
I2955
sV\u9e1f
I2093
sV\u60a0
I2058
sV\uff1a
I72
sV\uff35
I4679
sV\u6539
I224
sV\u84b8
I2225
sV\u73c2
I3853
sV\u79c6
I3311
sV\u7fca
I3670
sV\u65ce
I5073
sV\u6bd2
I810
sV\u2161
I4159
sV\u89e6
I1400
sV\u8fea
I1309
sV\u72ec
I804
sV\u7ef4
I606
sV\u8e7f
I3349
sV\u9704
I3435
sV\u5806
I1640
sV\u7c89
I1105
sV\u8910
I3363
sV\u9499
I2001
sV\u9a9d
I5464
sV\u80a1
I777
sV\u63b7
I2907
sV\u8036
I2029
sV\u69bb
I3905
sV\u634c
I4419
sV\u4ed5
I2884
sV\u5c5e
I636
sV\u8160
I5616
sV\u5df3
I4585
sV\u6076
I1231
sV\u667a
I967
sV\u6c7e
I3783
sV\u3001
I5
sV\u5180
I2639
sV\u5784
I2749
sV\u9886
I314
sV\u4f94
I5127
sV\u6da8
I902
sV\u5ab2
I3800
sV\u6a3d
I4326
sV\u8bbc
I1947
sV\u9041
I4278
sV\u5543
I3429
sV\u72c2
I1511
sV\u9645
I520
sV\u7eca
I2998
sV\u64ce
I2823
sV\u7357
I3787
sV\u795b
I3060
sV\u9cde
I3623
sV\u6563
I1209
sV\u6b67
I2334
sV\u79f0
I254
sV\u8377
I1886
sV\u65f8
I4991
sV\u8f7f
I1823
sV\u800c
I135
sV\u6d95
I3847
sV\u7316
I3597
sV\u5a9b
I2573
sV\u751a
I851
sV\uff1e
I4827
sV\u8fa9
I1845
sV\u6d2a
I1385
sV\u7eb3
I918
sV\u5c34
I2345
sV\u8336
I1260
sV\u853a
I3892
sV\u6cbf
I1357
sV\u53c1
I4098
sV\u7240
I5067
sV\u55c5
I3830
sV\u7444
I4069
sV\u82cb
I4675
sV\u5356
I755
sV\u63e1
I1364
sV\u65e5
I27
sV\u6376
I4192
sV\u87f9
I3029
sV\u5484
I4678
sV\u640f
I2499
sV\u9017
I2557
sV\u789c
I4956
sV\u62a0
I3778
sV\u64a4
I1748
sV\u90ac
I4440
sV\u57ae
I3050
sV\u9ab0
I4313
sV\u59b2
I4908
sV\u693d
I5094
sV\u7bc6
I4133
sV\u4e53
I3062
sV\u93d6
I4493
sV\u6867
I4450
sV\u8be6
I1477
sV\u4ee8
I4361
sV\u8dea
I2517
sV\u516d
I842
sV\u70ec
I4201
sV\u5b71
I5358
sV\u9e73
I4972
sVw
I1585
sV\u7f28
I4436
sV\u7281
I3457
sV\u9504
I4339
sV\u5a06
I4432
sV\u5c0a
I1541
sV\u608d
I2496
sV\u5197
I3858
sV\u9699
I2668
sV\uff05
I1915
sV\u5b9b
I3345
sV\u989d
I740
sV\u82a1
I4801
sV\u73ab
I2544
sV\u75af
I1781
sV\u962e
I2928
sV\u5d34
I4658
sV\u8236
I2520
sV\u6dbf
I4664
sV\u5ec9
I1224
sV\uff48
I4579
sV\u614c
I2443
sV\u85cf
I928
sV\u6d54
I4942
sV\u5256
I2687
sV\u8360
I4223
sV\u6ee9
I2110
sV\u8f68
I1530
sV\u53eb
I998
sV\u90ed
I1078
sV\u55ef
I3591
sV\u6276
I1247
sV\u86f9
I4526
sV\u6e7e
I855
sV\u9082
I3751
sV\u5584
I599
sV\u9a86
I2869
sV\u5f88
I206
sV\u6f13
I3320
sV\u8892
I3933
sV\u63a0
I3182
sV\u65a4
I1368
sV\u683d
I2856
sV\u70c2
I2068
sV\u5947
I876
sV\u9e49
I3648
sV\u7cca
I2212
sVM
I877
sV\u4f53
I104
sV\u68d2
I2327
sV\u7b5b
I2886
sV\u59dc
I1687
sV\u2465
I5080
sV\u4fe8
I3298
sV\u956f
I4033
sV\u8c10
I1837
sV\u5c9b
I835
sV\u4ea7
I149
sV\u72af
I721
sV\u78b3
I2062
sV\u5a34
I3503
sV\u6cbb
I295
sV\u664c
I5150
sV\u82cf
I829
sV\u6c50
I4248
sV\u5556
I5044
sV\u535a
I483
sV\u9e5c
I4460
sV\u8868
I113
sV\u97ed
I3688
sV\u716e
I2060
sV\u58f3
I2344
sV\u7f72
I1084
sV\u637a
I4376
sV\u8ffd
I869
sV\u5480
I3270
sV\u620f
I883
sV\u6813
I2744
sV\u7098
I4785
sV#
I2963
sV\u62a4
I489
sV\u68a8
I2458
sV\u772d
I5688
sV\u9541
I3115
sV\u5043
I4859
sV\u6fd2
I2985
sV\u6063
I4573
sV\u946b
I2478
sV\u5b75
I3187
sV\u9500
I590
sV\u5c06
I86
sV\u7889
I4684
sV\u9e9d
I4166
sV\u84a1
I4794
sV\u82a5
I2954
sV\u4fa7
I1330
sV\u6c26
I4346
sV\u75ab
I1409
sV\u6a2a
I1705
sV\u73af
I397
sV\u902e
I2100
sV\u67b7
I4669
sV\u4f3c
I873
sV\u6bbf
I2295
sV\u54c1
I197
sV\u52c5
I5448
sV\u7948
I2719
sV\u83cf
I3973
sV\u6d50
I4068
sV\u70d9
I3859
sV\u7edd
I875
sV\u585e
I1605
sV\u62e5
I999
sV\u8364
I3338
sV\u7f13
I1212
sV\u53ef
I88
sV\u5580
I2574
sV\u5384
I3289
sV\u7f07
I2991
sV\u5988
I794
sV\u9a8a
I4473
sV\u5019
I653
sV\u5e1d
I1514
sV\u9b1f
I5370
sV\u69a8
I3134
sV\u5143
I131
sV\u76c2
I4583
sV\u98de
I715
sV\u2461
I4094
sV\u2265
I4737
sV\u956b
I5533
sV\u5c71
I355
sV\u5a75
I4452
sV\u9600
I3070
sV\u9004
I4124
sV\u840c
I1549
sV\u6995
I2825
sV\u711a
I2322
sV</s>
p2
I0
sV\u589f
I3261
sV\u7b1e
I5034
sV\u8ba9
I279
sV\u542c
I750
sV\u70af
I4193
sV\u5834
I4791
sV\u64b7
I4883
sV\u7640
I4702
sV\u86cb
I1059
sV\u4fd1
I2822
sV\u6854
I3760
sV\u73d9
I4575
sV\u515a
I333
sVd
I1210
sV\u56eb
I5668
sV\u95ed
I1332
sV\u4efb
I208
sV\u7c07
I3856
sV\u998a
I4966
sV\u600f
I5126
sV\u838e
I2324
sV\u5319
I2539
sV\u8c27
I4394
sV\u752d
I4449
sV\u53ae
I3754
sV\uff31
I5218
sV\u6339
I4918
sV\u82b8
I3356
sV\u6d3d
I2659
sV\u5243
I3916
sV\u75c2
I4891
sV\u7457
I5607
sV\u52d8
I2294
sV\u6263
I1476
sV\u8fe6
I3824
sV\u5f71
I345
sV\u7ef0
I3302
sV\u9a73
I2402
sV\u6cfc
I2472
sV\u9700
I439
sV\u7085
I3011
sV\u9104
I5376
sV\u5e06
I2418
sV\u701a
I3631
sV\u7a1e
I4145
sV\u80a5
I884
sV\u682a
I2623
sV\u552c
I4074
sV\u5934
I330
sV:
I1056
sV\u8a3e
I5603
sV\u7740
I158
sV\u5ac9
I3335
sV\u654c
I1732
sV\u4ed1
I3088
sV\u6954
I4513
sV\u72d9
I3407
sV\u505a
I304
sV\u8760
I3625
sV\u4e66
I363
sV\u94ed
I2015
sV\u51ef
I1550
sV\u6676
I1948
sV\u82f9
I1576
sV\u607a
I1685
sV\u5b88
I1024
sV\u670b
I885
sV\u988a
I3411
sV\u610f
I196
sV\u828e
I5010
sV\u9517
I5599
sV\u5219
I484
sV\u5c1d
I1656
sV\u8d27
I839
sV\u5343
I816
sV\u7ec6
I754
sV\u78ca
I1963
sV\u62ce
I2967
sV\u8e51
I5033
sV\u53d8
I408
sV\u795f
I3871
sV\u6363
I3122
sV\u916f
I3612
sV\u7ff0
I2495
sV\u8f7b
I761
sV\u6dfc
I3817
sV\u897f
I219
sV\u7981
I850
sV\u5106
I4491
sV\u8010
I2005
sV\u6795
I2802
sV\u7f1a
I3365
sV\u6b22
I790
sV\u672a
I412
sV\u7eaf
I1421
sV\u5634
I1684
sV\u8936
I3771
sV\u60bb
I4409
sV\u7840
I959
sV\u9cc3
I5550
sV\u5fc5
I664
sV\ufe44
I5572
sV\u6050
I1343
sV\u84d3
I3236
sV\u6654
I3795
sV\u5956
I679
sV\u65e9
I581
sV\u58eb
I400
sV\u7d6e
I3290
sV\u97f5
I2447
sV\u8df9
I5503
sV\u6f7a
I4218
sV\u5e84
I1155
sV\u680b
I1887
sV\u6413
I3114
sV\u8392
I5164
sV\u7c98
I2808
sV\u901b
I2424
sV\u531d
I2848
sV\u961f
I350
sV\u8c23
I2268
sV\u7131
I4229
sV\u90b0
I5430
sV\u633d
I2360
sV\u9549
I4194
sV\u4e4f
I1629
sV\u8151
I3804
sV\u63d2
I1935
sV\u7a57
I3594
sV\u8be2
I1006
sV\u4ee4
I731
sV\u6267
I585
sV\u5171
I303
sV\u76f4
I336
sV\u6cf8
I2898
sV{
I5555
sV\u62fc
I1560
sV\u7881
I4863
sV\u9508
I3129
sV\u8110
I3312
sV\u5b97
I1180
sV\u7816
I2282
sV\u519b
I262
sV\u6026
I4652
sV\u7faf
I5001
sV\u6bb7
I2437
sV\u043e
I5559
sV\u58c1
I1857
sV\u7940
I3375
sV\u7f44
I3010
sV\u54c9
I4076
sV\u7548
I4714
sV\u6b4c
I713
sV\u7cd9
I3113
sV\u6ee5
I2358
sV\u8568
I4751
sV\u55f3
I5622
sV\u7272
I2348
sV\u6876
I2174
sV\u9a82
I1724
sV\u5f84
I1587
sV\u6f0f
I1663
sV\u8292
I2691
sV\u521d
I698
sV\u8d23
I372
sV\u4e25
I435
sV\u8327
I4128
sV\u52b2
I1631
sV\u6c39
I5567
sV\u8db8
I4012
sV\u4eba
I7
sV\u03bc
I4834
sV\u9e45
I2704
sV\u5347
I555
sV\u76ca
I647
sV\u4f4f
I382
sVQ
I1512
sV\u62d2
I1316
sV\u6d63
I4596
sV\u6367
I2082
sV\u9573
I4427
sV\u6df8
I5534
sV\u817b
I2543
sV\u5306
I2214
sV\u4f0e
I3684
sV\u8210
I5412
sVX
I1725
sV\u9f99
I577
sV\u529b
I112
sV\u8ba1
I260
sV\u5230
I25
sV\u5434
I841
sV\u4e38
I2490
sV\u62bb
I5149
sV\u8d3a
I1507
sV\u5dc5
I3052
sV\u684c
I1583
sV\u6454
I1899
sV\u9e58
I5133
sV\u575e
I2647
sV\u6be1
I4311
sV\u67e9
I3845
sV\u5cef
I4572
sV\u83bc
I5316
sV\u7172
I3308
sV\u95f5
I3180
sV\u8ff9
I1381
sV\u677e
I1016
sV\u6c0f
I1428
sV\u8f8e
I5642
sV\u6613
I574
sV\u709c
I3076
sV'
I3301
sV\u66a8
I2387
sV\u5fae
I504
sV\u51b2
I1029
sV\u7535
I152
sV\u94b4
I4958
sV\u9b41
I2881
sV\u5047
I695
sV\u75ca
I3855
sV\u61d2
I2689
sV\u725b
I1033
sV\u50dc
I4873
sV\u745f
I2580
sV\u596d
I4979
sV\u78ec
I4787
sV\u5371
I961
sV\u72f0
I4839
sV\u9673
I5663
sV\u74f4
I4858
sV\u8877
I2142
sV\u7a81
I626
sV\u5802
I1053
sV\u5206
I81
sV\u9708
I4143
sV\u540a
I2008
sV\u4e0e
I118
sV\u6291
I2018
sV\u6495
I2786
sV\u909d
I4399
sV\u559f
I5525
sV\u4fa3
I2036
sV\u6822
I5341
sV\u7bab
I4932
sV\u642a
I4028
sV\u9e2e
I5413
sV\u77b3
I4570
sV\u9032
I5637
sV\u69b7
I4302
sV\u4f38
I1743
sV\u5ac1
I1921
sV\u91c7
I556
sV\u8bcb
I4077
sV\u6350
I1383
sV\u7ed9
I301
sV\u6ce5
I1736
sV\u8d64
I2138
sV\u94f5
I5580
sV\u80fd
I61
sV\u667e
I3409
sV\u9882
I2395
sV\u948a
I3599
sV\u951f
I5076
sV\u6da4
I3560
sV\u782d
I5319
sV\u99ac
I5215
sV\u7231
I414
sV\u50b2
I2474
sV\u7435
I4122
sVJ
I1864
sV\u9649
I5008
sV\u884d
I2712
sV\u7957
I5363
sV\u5fd8
I1602
sV\u6167
I1523
sV\u82e6
I1080
sV\u586d
I5457
sV\u9773
I4230
sV\u5475
I2019
sV\u75f4
I2622
sV\u837b
I3981
sV\u5f02
I986
sV\u5506
I4244
sV\u6f8d
I4336
sV\u8e0c
I4844
sV\u6591
I2173
sV\u8214
I4184
sV\u5e97
I588
sV\u9999
I734
sV\u549b
I4433
sV\u529f
I589
sV\u8ba5
I4403
sV\u632a
I2102
sV\u992e
I4560
sV\u70b3
I3092
sV\u9732
I718
sV\u62bf
I5093
sV\u813e
I2314
sV\u5bc5
I3676
sV\u96c7
I2442
sV\u51c9
I1854
sV\u6254
I2361
sV\u5b5a
I3698
sV\u6de1
I1625
sVh
I1091
sV\u95f1
I4629
sV\u50f3
I5585
sV\u4ef7
I263
sV\u5088
I5584
sV\u4e8c
I272
sV\u5919
I4174
sV\u7898
I3430
sV\u8627
I5683
sV\u60a8
I1425
sV\uff2d
I4015
sV\u59ae
I2364
sV\u7531
I300
sV\u94b0
I3316
sV\u673d
I3595
sV\u9b45
I2192
sV\u9149
I5065
sV\u73ca
I2480
sV\u69ce
I5017
sV\u67d2
I4312
sV\ufe57
I4936
sV\u745b
I3025
sV\u725f
I2880
sV\u6863
I1097
sV\u8fe2
I3991
sV\u5f6d
I1721
sV\u9a6f
I3702
sV\u5375
I2536
sV\u66fc
I1382
sV\u5e02
I42
sV\u7a85
I5539
sV\u5406
I3706
sV\u7089
I1970
sV\u520a
I1488
sV\u6491
I1787
sV\u2193
I4558
sV\u6295
I449
sV\u8314
I5281
sV\u5f97
I126
sV\u7a1a
I3341
sV\u539f
I253
sV\u80a9
I1964
sV\u622a
I1003
sV\u5530
I5297
sV\u9632
I416
sV\u8c36
I5295
sV\u5cc1
I5485
sV\u8dcb
I3550
sV\u4ecd
I758
sV\u8bcf
I3511
sV\u5a5a
I539
sV\u975c
I5429
sV\u6ce1
I1702
sV\u8d60
I1679
sV\u60e9
I1655
sV\u5deb
I3154
sV\u786e
I376
sV\u51f3
I3023
sV\u6c76
I3061
sV\u88f9
I2375
sV\u9e82
I5625
sV\u3009
I3124
sV\u5188
I2542
sV\u6d0b
I1049
sV\u61a8
I3317
sV\u7235
I2701
sV\u6839
I518
sV\u5747
I568
sV\uff57
I4680
sV\u9cd6
I4362
sV\u59d8
I5392
sV\u755b
I4833
sV\u90de
I5447
sV\u6963
I5436
sV\u84e6
I4990
sV\u5471
I4104
sV\u75f0
I2486
sV\u857b
I4779
sV\u7f81
I3268
sV\u7985
I3176
sV\u5706
I1265
sV\u7389
I984
sV\u8c0c
I3770
sV\u5c97
I1310
sV\uff16
I2233
sV\u731e
I5537
sV\u6726
I3979
sV\u7eab
I4768
sV\u5c2c
I2342
sV\u9532
I4276
sV\u53c9
I2284
sV\u7248
I836
sV\u82d3
I4334
sV\u7bd9
I5460
sV\u595a
I3565
sV\u535e
I3729
sV\u6fe1
I3920
sV\u63e9
I5083
sV\u7b6e
I3971
sV\u7572
I4690
sV\u5288
I3521
sV\u680f
I1779
sV\u7a98
I3404
sV\u7f6e
I674
sV\u749c
I4545
sV\u901f
I468
sV\u8427
I2355
sV\u62a8
I3665
sV\u5447
I5029
sV\u4e4b
I141
sV\u71ca
I4400
sV\u6bce
I5199
sV\u8155
I2531
sV\u6467
I2950
sV\u9e6b
I4701
sV\u81ea
I74
sV\u5175
I858
sV\u807f
I4613
sV\u6691
I2729
sV\u579b
I4871
sV\u781a
I4058
sV\u949d
I3536
sV\u6c22
I3191
sV\u82a9
I5344
sV\u602a
I1503
sV\u5730
I40
sV\u73b3
I5621
sV\u823e
I5263
sV\u58c5
I5042
sV\u52c9
I2660
sV\u6750
I923
sV\u7ad9
I323
sV\u585a
I4451
sV\u955c
I1325
sV\u6ee1
I616
sV\u62e9
I871
sV\u8368
I5285
sV\u5feb
I399
sV\u53f3
I764
sV\u627e
I707
sV\u5f80
I498
sV\u7b03
I3708
sV\u9c82
I5240
sV\u5984
I3128
sV\u9686
I1510
sV\u2015
I3567
sV\u541d
I3725
sV\u63a8
I316
sV\u54b2
I4462
sV\u91b4
I5170
sV\u4eb6
I4973
sV\u8bb8
I562
sV\u5b43
I5367
sV\u76c6
I2297
sV\u70ca
I4173
sV\u8651
I1125
sV\u64d2
I3367
sVU
I1632
sV\u775b
I1856
sV\u98da
I4321
sV\u55dc
I3480
sV\u6b63
I179
sV\u8ce2
I4976
sV\u996f
I4634
sV\u5671
I3753
sV\u8d77
I148
sV\u65fc
I5055
sV\u817f
I1486
sV\u6302
I1206
sV\u908b
I4335
sV\u968f
I469
sV\u5f95
I5257
sV\u6297
I1048
sV\u6e9f
I4790
sV\u9020
I379
sV\u622c
I5677
sV\u6e34
I2433
sV\u7a3c
I3596
sV\u73cd
I1418
sV\u524c
I5273
sV\u79d1
I326
sV\u5e54
I4253
sV\u82d7
I1577
sV\u51e1
I1745
sV\u94e3
I5469
sV\u5de9
I2141
sV\u60eb
I3148
sV\u7f6a
I646
sV\u8870
I1773
sV\u6cf3
I2164
sV\u8e74
I3610
sV\u5176
I114
sV\u9a7c
I3151
sV\u7eff
I1018
sV\u6684
I4009
sV\u6c88
I1283
sV\u500b
I5686
sV+
I1997
sV\u8c33
I4992
sV\u9e3f
I2072
sV\u80c0
I2315
sV\u6a47
I4293
sV\u4fca
I1419
sV\u5bd2
I1100
sV\u9ed4
I3232
sV\u8559
I4373
sV\u64d8
I5324
sV\u4e5f
I65
sV\u5a67
I3081
sV\u636d
I4949
sV\u8bf2
I4842
sV\u918b
I2681
sV\u6e0a
I3036
sV\u5e95
I655
sV\u699b
I4551
sV\u75a3
I5087
sV\u82ad
I2947
sV\u88b1
I3483
sV\u6930
I2902
sV\u7538
I2614
sV\u59bb
I815
sV\u7b3c
I2199
sV\u6cc9
I1459
sV\u8e4a
I3533
sV\u7ed5
I1290
sV\u665a
I349
sV\u8fdf
I1696
sV\u6c5e
I4132
sV\u7262
I1667
sV\ufe6a
I5581
sV\u67ef
I2151
sV\u6df3
I2866
sV\u8f74
I2450
sV\u5076
I1495
sV\u79fb
I867
sV\u8001
I187
sV\u6784
I569
sV\u6d88
I341
sV\u510b
I3013
sV\u7f94
I4515
sV\u8096
I1750
sV\u51a0
I1379
sV\u98a6
I5013
sV\u64ae
I3626
sV\u5439
I2032
sV\u7cbe
I511
sV\u81c0
I2620
sV\u6b47
I2417
sV\u4eca
I273
sV\u54ce
I3636
sV\u4f5f
I2265
sV\u626d
I2181
sV\u5bfc
I225
sV\u518d
I389
sV\u300c
I3644
sV\u948f
I4716
sV\u9e93
I3336
sV\u7912
I4910
sV\u6c9f
I1358
sV\u4f1e
I2804
sV\u33a1
I3136
sV\u78a7
I2391
sV\u9e28
I5239
sV\u4eb3
I2929
sV\u6c34
I195
sV\u7638
I4439
sV\u783c
I5274
sV\u5cbf
I4724
sV\u65c5
I438
sV\u6fc9
I3969
sV\u4e48
I321
sV\u8d4a
I4147
sV\u504c
I4475
sV\u6f5e
I3889
sVl
I963
sV\u70f7
I4310
sV\u987c
I4914
sV\u8301
I4127
sV\u6280
I516
sV\u540f
I3034
sV\u7f18
I1634
sV\u8f9e
I1644
sV\u52a0
I116
sV\u7525
I3672
sV\u54a4
I4114
sV\u7f29
I1367
sV\u822b
I5390
sV\u5739
I4732
sV\u6643
I2821
sV\u84c4
I2070
sV\u57ce
I201
sV\u9cd4
I4654
sV\u8759
I3662
sV\u72e0
I2140
sV\u74e4
I5459
sV\u7779
I2612
sV\u95fa
I2742
sV\u8783
I3690
sV\u6002
I4412
sV\u4e89
I635
sV\u508d
I2545
sV\u7812
I4024
sV\u8718
I3776
sV\u6d9f
I3831
sV\u4e1e
I3643
sV\u9524
I2790
sV\u79a7
I2697
sV\u51b7
I1052
sV\u7738
I4209
sV\u793c
I763
sVB
I896
sV\u64c5
I2253
sV\u5b50
I64
sV\u7cd5
I2178
sV\u8bdb
I3806
sV\u8ddf
I819
sV\u54e5
I1092
sV\u65ef
I5147
sV\u8d74
I1524
sV\u997c
I2234
sV\u8201
I5608
sV\u6380
I2162
sV\u8e09
I4189
sV\u6f88
I3032
sV\u900d
I3374
sV\u550f
I3529
sV\u7b90
I5660
sV\u5f13
I3157
sV\u6619
I4650
sV\u90a2
I2611
sV\u7425
I3619
sV\u5fa8
I3996
sV\u832b
I2737
sV\u66ae
I3615
sV\u72b6
I773
sV\u5639
I4423
sV\u9b3b
I5515
sV\u583d
I4900
sV\u7ebe
I4472
sV\u83c0
I4617
sV\u6743
I451
sV\u8fc8
I1692
sV\u91cc
I174
sV\u754f
I2640
sV\uff53
I4442
sV\u67d8
I4198
sV\u73e0
I1682
sV\u75e4
I4657
sV\u606d
I2789
sV\u86ee
I2746
sV\u6a71
I3408
sV\u94fa
I1355
sV\u8083
I1427
sV\u8e87
I4800
sV\u9893
I3664
sV\uff12
I1489
sV\u5b95
I3549
sV\u6697
I1463
sV\u8018
I3689
sV\u6c9b
I2914
sV\u7ea7
I327
sV\u6c30
I3681
sV\u56b7
I3526
sV\u65c1
I1370
sV\u77cd
I4605
sV\u564c
I4776
sV\u6556
I4004
sV\u4fdd
I146
sV\u695e
I3810
sV\u55e1
I3958
sV\u7762
I4536
sV\u53e5
I1264
sV\u866c
I4896
sV\u62ef
I3193
sV\u7cfb
I248
sV\u7aff
I3432
sV\u8305
I2311
sV\u6284
I2431
sV\u4e07
I177
sV\u540b
I4683
sV\u970d
I2056
sV\u7325
I2946
sV\u58a8
I1874
sV\u73ba
I4044
sV\u79be
I2904
sV\u6043
I3998
sV\u96cc
I2841
sV\u5fd2
I5205
sV\u60d8
I4483
sV\u78e8
I1925
sV\u676d
I1639
sV\u2500
I3649
sV\u6602
I2330
sV\u8f87
I5333
sV\u958b
I5361
sV\u6a0a
I2857
sV\u938f
I4725
sV\u5c91
I3447
sV\u6797
I447
sV\u8118
I5468
sV\u6d9b
I1473
sV\u672c
I127
sV\u90b9
I1990
sV\u9ebd
I4808
sV\u5bbf
I1430
sV\u62c5
I702
sV\u8c46
I1257
sV\u68c9
I2027
sV\u904e
I5687
sV\u5b54
I1794
sV\u8ddb
I5171
sV\u4edd
I3575
sV\u8bdf
I3202
sV\u54e1
I5369
sV\u8d70
I413
sV\u9178
I1223
sV\u587e
I4643
sV\u8401
I5605
sV\u8205
I2675
sV\u6988
I4476
sV\u778c
I4305
sV\u7b94
I5148
sV\u6e1d
I2731
sV\u59a8
I2259
sV\u832f
I5072
sV\u5e3d
I2165
sV\u78be
I2839
sV\u6f47
I2452
sV\u89c8
I1709
sVY
I2198
sV\u5f67
I5151
sV\u94f6
I678
sV\u51f8
I2451
sV\u98fe
I5030
sV\u8283
I5517
sV\u6f06
I2645
sV\u968b
I2678
sV\u730e
I2128
sV\u8c1c
I2559
sV\u5522
I5195
sV\u5f26
I3027
sV\u592a
I506
sV\u642c
I1595
sV\u8fb1
I2320
sV\u7238
I791
sV\u75cd
I5612
sV\u5854
I1299
sV\u6756
I3633
sV\u846c
I1825
sV\u60ef
I1363
sV\u74f7
I2300
sV\u9c7c
I969
sV\u6084
I2065
sV\u5a13
I3911
sV/
I910
sV\u63ae
I4843
sV\u6db2
I1239
sV\u5339
I2148
sV\u71ba
I5549
sV\u5d3d
I3846
sV\u86c0
I4301
sV\u80c4
I5105
sV\u6c47
I1162
sV\u94cc
I5366
sV\u704f
I5101
sV\u62d8
I1493
sV\u8d5d
I4219
sV\u9761
I2827
sV\u9165
I3221
sV\u70e4
I2205
sV\u4ef0
I2368
sV\u6975
I5649
sV\u97f6
I3045
sV\u6402
I3525
sV\u978b
I1768
sV\u5e91
I5530
sV\u6597
I1026
sV\u5e26
I377
sV\u582a
I1840
sV\u55b7
I2037
sV\uff34
I4245
sV\u60c5
I147
sV\u7ed1
I2090
sV\u78d5
I3021
sV\u5954
I1567
sV\u6656
I2546
sV\u8fdb
I68
sV\u56e1
I5354
sV\u5ae9
I2277
sV\u8f70
I1976
sV\u5676
I4342
sV\u7ffb
I1238
sV\u8005
I62
sV\u570b
I4793
sV\u809a
I2049
sV\u57a0
I5040
sV\u94a2
I1414
sV\u51a4
I2582
sV\u9ea6
I1502
sV\u812f
I3942
sV\u9537
I5518
sV\u5239
I2459
sV\u9f3b
I1919
sV\u70ba
I4512
sV\u5c3d
I757
sV\u6343
I5510
sV\u6d47
I3020
sV\u4ec6
I3186
sV\u8bc8
I1450
sV\u4f5b
I1548
sV\u9661
I2964
sV\u9065
I1980
sV\u646d
I5614
sV\u96f6
I1093
sV\u7279
I285
sV\u53f8
I239
sV\u7c7d
I2960
sV\u3010
I1262
sV\u9493
I1870
sV\u5795
I4500
sV\u4f1a
I24
sV\u821c
I3501
sV\u5b22
I5486
sV\u572a
I5298
sV\u8bad
I905
sV\u7c38
I3946
sV\u50bb
I2469
sV\u69c1
I5137
sV\u8146
I4240
sV\u5654
I4694
sV\u80db
I5060
sV\u86df
I3628
sV\u655e
I2702
sV\u7166
I4752
sVp
I1423
sV\u5976
I1103
sV\u557e
I5524
sV\u5e0f
I5386
sV\u5413
I1834
sV\u8996
I5450
sV\u6d19
I4503
sV\u631d
I4163
sV\uff25
I4454
sV\u7529
I2661
sV\u54a8
I1668
sV\u6dae
I3564
sV\u903b
I2024
sV\u963f
I780
sV\u75be
I1197
sV\u6247
I2461
sV\u9acc
I5252
sV\u8d59
I4917
sV\u62dc
I1270
sV\u5267
I583
sV\u83f2
I1251
sV\u95fe
I5088
sV\u6006
I5051
sV\u998b
I4021
sV\u660a
I3147
sV\u9593
I5548
sV\u4e1a
I60
sV\u831c
I2236
sV\u5026
I3142
sV\u9528
I5674
sV\u4faf
I1890
sV\u80b1
I4890
sV\u86b5
I5425
sV\u6734
I1801
sV\u51bb
I1788
sVF
I1300
sV\u8bd7
I1308
sV\u645e
I3999
sV\u54e9
I4055
sV\u8b6c
I3496
sV\u8170
I1797
sV\u8774
I3530
sV\u7bf7
I2981
sV\u5e7a
I4557
sV\u77ff
I1407
sV\u6f84
I1996
sV\u5f0f
I325
sV\u9011
I5529
sV\uff42
I5506
sV\u8896
I2319
sV\u6c19
I5165
sV\u90a6
I1807
sV\u892b
I5311
sV\u6cae
I3538
sV\u78b6
I5242
sV\u5c39
I2251
sV\u7eba
I2799
sV\u523d
I5082
sV\u89c0
I5684
sV\u8fc4
I2705
sV\uff4f
I4455
sV\u52d2
I1458
sV\u6dd8
I1584
sV\u5367
I1791
sV\u75e8
I5643
sV\u53fc
I4317
sV\u94fe
I1693
sV\u8087
I2069
sV\u9a8b
I3840
sV\u598d
I2747
sV\uff0e
I2216
sV\u6897
I3127
sV\u629b
I2124
sV\u7ea3
I5058
sV\u83b1
I1519
sV\u6230
I5685
sV\u52bb
I5483
sV\u54bf
I5081
sV\u6bc1
I1515
sV\u6dc5
I4285
sV\u8346
I2713
sV\u854a
I3891
sV\u79cd
I245
sV\u584c
I2635
sV\u73d1
I3826
sV\u5250
I4343
sV\u9152
I661
sV\u75d5
I2073
sV\u82db
I3195
sV\u6d5a
I3489
sV\u84df
I4723
sV\u675e
I3332
sV\u5be1
I2685
sV\u7962
I5398
sV\u5de5
I45
sV\u90e7
I4430
sV\u756a
I1627
sV\u886c
I3008
sV\u6cef
I4988
sV\u8270
I1862
sV\u66f3
I4380
sV\u78f7
I2797
sV\u6a80
I3389
sV\u4e03
I1044
sV\u788c
I2644
sV\u5c0f
I78
sV\u4e98
I4623
sV\u7729
I3875
sV\u8c2f
I4118
sV\u5f39
I882
sV\u77be
I5671
sV\u6e43
I4119
sV\u60dc
I1945
sV\u7ae0
I957
sV\u9769
I501
sV\u6371
I4806
sV\u7f79
I3361
sV\u717d
I3079
sV\u8f83
I510
sV\u5495
I4036
sV\u659f
I4109
sV\u7fa3
I5437
sV\u88ad
I1440
sV\u82b1
I523
sV\u7f38
I2864
sV\u53bb
I169
sV\u90bd
I4868
sV\u6cc5
I5619
sV\u9052
I5471
sV\u4ed9
I1994
sV\u5ae1
I4850
sV\u5ce5
I3211
sV\u7266
I4649
sV\u6beb
I1362
sV\u67f3
I1836
sV\u8574
I2714
sV\u5a76
I3342
sV\u75ff
I4241
sV\u8c05
I2684
sV\u601d
I663
sV\u5ba0
I2084
sV\u7629
I3748
sV\u8d2f
I1144
sV\u60b2
I1902
sV\u8bc0
I2718
sV\u8dc4
I4190
sV\u7b4b
I2384
sV\u8e59
I5417
sV]
I1545
sV\u5167
I4974
sV\u7f50
I2302
sV\u9669
I624
sV\u51fc
I5321
sV\u96fe
I1313
sV\u6f02
I1799
sV\u7f2d
I3709
sV\u9a8f
I2237
sV\u5591
I4492
sV\u9093
I1249
sV\u5395
I1953
sV\u78a3
I5322
sVZ
I2502
sV\u532a
I2145
sV\u6234
I1321
sV\u5eb7
I723
sV\u7838
I1973
sV\u54bb
I4207
sV\u52bf
I627
sV\u6bc5
I1833
sV\u5e4c
I3863
sV\u5450
I3439
sV\u9752
I672
sV\u5254
I2878
sV\u82df
I3481
sV\u5de1
I1151
sV\u7f62
I2552
sV\u5be5
I3353
sV\u7566
I5383
sV\u6ceb
I5372
sV\u8e6c
I4107
sV\u60f3
I309
sV\u7ef7
I3479
sV\u5b7a
I4774
sV\u6a84
I5336
sV\u8109
I2006
sV\u9511
I5223
sV\u7490
I2706
sV\u671d
I799
sV\u50a8
I1543
sV\u8033
I1452
sV\u5939
I2203
sV\u6843
I1650
sV\u94d0
I3315
sV\u68d8
I3392
sV\u66dc
I5176
sV\u7ce0
I4815
sV\u9169
I5441
sV\u70e8
I3175
sV\u6f6d
I2299
sV\u4eec
I85
sV\u777d
I4225
sV\u8983
I2868
sV\u620a
I4548
sV\u659b
I4553
sV\u871c
I1623
sV\u77a7
I3177
sV\u5426
I752
sV\u5fb7
I567
sV\u55bb
I2369
sV\u96bd
I3247
sV\u773c
I710
sV\u53bf
I357
sV\u8e42
I3066
sV\u8446
I3516
sV\u7ecd
I637
sV\u984e
I5527
sV\u5550
I5396
sV\u5ce1
I1876
sV\u97e7
I3057
sV\u6deb
I1942
sV\u8f6c
I430
sV\u6bef
I2560
sV\u5a7a
I5025
sV\u977c
I5406
sV\u8c01
I1166
sV\u7f8c
I3825
sV\u661d
I4559
sV\u5ba4
I668
sV\u94a6
I2624
sV\u8d2b
I1359
sV\u4e2d
I16
sV\u953b
I2094
sV\u8bc4
I640
sV\u7b4f
I4607
sV\u804c
I455
sV\u4f57
I4878
sV\u8859
I3651
sV\u67dc
I2052
sV\u767d
I522
sV\u90fe
I5028
sV\u9e8b
I4639
sV\u5195
I2932
sV\u3014
I3514
sV\u609f
I2579
sV\u9e20
I4216
sV\u7aa3
I5012
sV\u74a7
I3518
sV\u4eab
I1050
sV\u5cb7
I4374
sV\u743c
I1877
sV\u8d42
I2526
sV\u63c9
I3461
sV\u814a
I1859
sV\u5c4c
I2892
sV\u9552
I5350
sV\u71d5
I1536
sV\u86db
I3372
sV\u695a
I1401
sV\u635e
I2264
sV\u5fe1
I3957
sV\u59e5
I3267
sV\u94e7
I4892
sV\u7766
I3380
sV\u53e9
I4254
sV\u62f3
I2146
sVt
I945
sV\u9a78
I4603
sV\u8309
I3541
sV\u8f96
I1686
sV\u839e
I2489
sV\uff21
I3972
sV\u5ea0
I5579
sV\u7329
I3280
sV\u52a8
I77
sV\u91aa
I4911
sV\u963b
I1506
sV\u79ba
I3573
sV\u6447
I1695
sV\u9ccc
I3188
sV\u784f
I5500
sV\u55d2
I4693
sV\u9965
I2812
sV\u6175
I4425
sV\u7b79
I1314
sV\u54fc
I4153
sV\u8587
I2161
sV\u6606
I1966
sV\u9f8b
I5032
sV\u998f
I4576
sV\u7a0e
I948
sV\u4e16
I476
sV\u9f20
I2261
sV\u502a
I1930
sV\u6ec1
I2986
sV\u25c7
I5096
sV\u62c9
I573
sV\u804a
I1610
sV\u7ccd
I4742
sV\u5d4c
I3226
sV\u76d1
I375
sV\u5750
I881
sV\u5154
I2532
sV\u6e56
I657
sV\u8174
I4968
sV\u5e76
I172
sV\u6984
I2399
sV\u6388
I1112
sV\u5f0b
I3152
sV\u590f
I1269
sV\u9611
I4158
sV\u7194
I3601
sV\u9ca2
I5160
sV\u7825
I4093
sV\u59a4
I3738
sV\u53a8
I1961
sV\u90aa
I2894
sV\u7eb6
I4101
sV\u89c4
I238
sV\u54d2
I4901
sV\u7fe0
I2565
sV\u5b63
I818
sV\u79e4
I3874
sV\u5567
I3914
sV\u6c6d
I5595
sV\u7a79
I4495
sV\u5bf8
I2089
sV\u5785
I5283
sV\u9a87
I3692
sV\u808b
I3398
sV\u9418
I5445
sV\u8c28
I2156
sV\u4f2a
I1816
sV\u722c
I2022
sV\u7830
I3505
sV\u5cb3
I1820
sV\u85b9
I5597
sV\u8bbd
I2870
sV\u4ebf
I533
sV7
I128
sV\u5c48
I2120
sV\u63cd
I4887
sV\u4e54
I1739
sV\u98db
I5652
sV\u5bdd
I2933
sV\u9edf
I5201
sV\u6362
I954
sV\u70eb
I2648
sV\u76ef
I2540
sV\u556e
I5545
sV\u62f7
I3637
sV\u7080
I4139
sV\u5403
I472
sV\u7684
I2
sV\u5a07
I2241
sV\u7519
I4051
sV\u75ae
I3139
sV\u5931
I595
sV\u5f35
I4811
sV\u8237
I3500
sV\u61b6
I5359
sV\u53c2
I423
sV\u96c4
I1312
sV\u59c6
I1700
sV\u604b
I1193
sV\u664f
I3164
sV\u74d8
I5562
sV\u60e0
I1118
sV\u6ce8
I480
sV\u736d
I5536
sV\u95ee
I202
sV\u58f0
I630
sV\u4e95
I1535
sV\u5016
I5021
sV\u7f9f
I5141
sV\u8d28
I398
sV\u4e2a
I32
sV\u732c
I5435
sV\u7f34
I1441
sV\u6538
I3901
sV\u4fbf
I538
sV\u70c1
I2831
sV\u5140
I4539
sV\u76c5
I4328
sV\u9e4a
I4152
sV\u62cd
I670
sV\u6ed5
I3390
sV\u54d9
I5454
sV\u2160
I4332
sV\u8be7
I3805
sV\u6866
I3434
sV\u9970
I1301
sV\u9001
I554
sV\u9605
I1649
sV\u7784
I2895
sV\u820d
I1559
sV\u638c
I1376
sV\u5598
I2793
sV\u5b9c
I1131
sV\u6021
I2155
sV\u6625
I291
sV\u6cbe
I2752
sV\u5eca
I2231
sV\u83cc
I1789
sV\u674f
I2788
sV\u6d53
I1426
sV\u8fd4
I1182
sV\u5357
I218
sV\u75d8
I2908
sVa
I607
sV\u53ec
I990
sV\u94ee
I3033
sV\u80f6
I1911
sV\u6479
I3772
sV\u9887
I1796
sV\u7b06
I4320
sV\u5f89
I4754
sV\u828b
I3491
sV\u7d0a
I3297
sV\u6912
I2353
sV\u5316
I134
sV\u7c9f
I3413
sV\u8424
I4260
sV\u68a7
I3362
sV\u52ab
I1809
sV\u54af
I3788
sV\u683c
I338
sV\u75c5
I461
sV\u874e
I3823
sV\u6bd1
I5554
sV\u59dd
I3572
sV\uff5e
I2201
sV\u2260
I4780
sV\u6162
I1211
sV\u2464
I4837
sV\u6b66
I615
sV\u4fe9
I1757
sV\u6d6a
I1149
sV\u74ef
I3732
sV\u9a70
I2067
sV\u7ef3
I2149
sV\u7280
I3181
sV\u9505
I1621
sV\u5807
I5394
sV\u810d
I4775
sV\u608c
I5598
sV\u6a90
I3682
sV\u4e13
I368
sV\u7719
I5070
sV\u6321
I1927
sV\u6525
I4120
sV\u6f29
I3653
sV\u4ea8
I2658
sV\u9e33
I4030
sV\u8037
I4895
sV\u94c4
I4606
sV\u5bc6
I769
sV\u624b
I193
sV\u80cc
I944
sV\u9759
I1200
sV\u76d8
I987
sV\u8361
I2127
sV\u8f69
I2335
sV\u6ee8
I1490
sV\u7b71
I2405
sV\u7f57
I736
sV\u858f
I4264
sV\u660e
I173
sV\u8f93
I937
sV\u67a3
I2289
sV\u69a7
I5162
sV\u9cb5
I4948
sV\u2236
I3040
sV\u9042
I2184
sV\u5544
I4379
sV\u25cf
I2160
sV\u864e
I1240
sV\u6cd5
I79
sV\u745a
I4018
sV\u6062
I1571
sV\u6c6a
I1496
sV\u916c
I1960
sV\u4e7e
I2617
sV\u5703
I4381
sV\u5907
I453
sV\u800d
I2340
sV\u8c15
I4528
sV\u6d94
I5461
sV\u7619
I4195
sV\u949a
I4983
sV\u781d
I4798
sV\u80a2
I2351
sV\u6e29
I642
sV\u4fa8
I2193
sV\u502d
I4272
sV\u952f
I3189
sV\u76ae
I976
sV\u5a31
I1235
sV\u8d3f
I1558
sV\u634b
I5139
sV\u654f
I1094
sV\u8e69
I4902
sV\u706d
I1731
sV\u5bf0
I3627
sV\u5df4
I803
sV\u9083
I4144
sV\u5385
I807
sV\u848b
I1461
sV\u7a9f
I2926
sV\u25a1
I2727
sV\u60a3
I854
sV\u6ea7
I4034
sV\u54ab
I4610
sV\u97ad
I2425
sV\u03b2
I3967
sV\u8fbd
I1575
sV\u5440
I2383
sV\u73c5
I3882
sV\u79c9
I2783
sV\u6dd1
I1954
sV\u6bd5
I1111
sV\u795e
I425
sV\u2460
I3986
sV\u6d66
I1883
sV\u6b6a
I2511
sV\u516e
I3769
sV\u9a74
I2738
sVx
I2221
sV\u6cfb
I2763
sV\u8e7c
I5135
sV\u9501
I1453
sV\u7480
I3569
sV\u7284
I5226
sV\u7f16
I898
sV\u870d
I3714
sV\u668c
I5211
sV\u6c90
I3281
sV\u7119
I4125
sV\u7f1d
I2171
sV\u5e9c
I356
sV\u6325
I914
sV\u8baa
I3458
sV\u572d
I3540
sV\u7fb2
I4215
sV\u63ba
I3219
sV\u4f3d
I3233
sV\u94c0
I2843
sV\u57c2
I4066
sV\u6853
I3381
sV\u5657
I5409
sV\u70d8
I3242
sV\u7edc
I774
sV\u8365
I4867
sV\u5cf0
I880
sV\u7b75
I5015
sV\u5889
I5334
sV\u600e
I911
sV\u521a
I682
sV\u6fa7
I4795
sV\u9cb1
I4998
sV\u59b3
I4760
sV\u9642
I3473
sV\u5948
I1805
sV\u25cb
I3606
sVN
I1075
sV\u8e52
I4286
sV\u81e3
I2122
sV\u75eb
I3992
sV\u5e72
I401
sV\u67f7
I5624
sV\u6dfb
I1711
sV\u8f7c
I3932
sV\u7384
I2782
sV\u8c11
I3844
sV\u5f9c
I4753
sV\u989e
I4663
sV\u6421
I3735
sV\u6829
I3333
sV\u562d
I4736
sV\u70ae
I1624
sV\u5c31
I71
sV\u7eb2
I1826
sV\u8737
I3929
sV\u8d3b
I4029
sV\u4e3d
I813
sV\uff47
I4997
sV\u634f
I2867
sV\u5757
I1002
sV\u5b5f
I2059
sV\u8461
I2288
sV\u65e0
I242
sV\u8869
I4660
sV\u6079
I5347
sV\u5185
I156
sV\u9c87
I5628
sV\u7f06
I2958
sV\u5b89
I108
sV\u630e
I3523
sV\u4f91
I3737
sV\u8a93
I2435
sV\u6d12
I2444
sV\u789f
I2603
sV\u6ca7
I2248
sV\u4f26
I1377
sV\ufe30
I4951
sV\u5ab3
I2240
sV\u7834
I694
sV\u83b9
I2276
sV\u9542
I4191
sV\u6fd1
I4231
sV\u4e50
I526
sV\u94d7
I5655
sV\u53d9
I1986
sV\u9edb
I2903
sV\u5ddd
I979
sV\u98df
I364
sV\u82e3
I5155
sV\u6562
I1274
sV\u6f66
I4448
sV\u70ef
I3250
sV\u9e70
I2000
sV\u9701
I3761
sV\u5203
I3100
sV\u5c07
I5182
sV\u7a88
I4377
sV\u6e90
I505
sV\u919a
I4415
sV\u902f
I4534
sV\u73ae
I2002
sV\u5f31
I1447
sV\u67b6
I1074
sV\u96c0
I3044
sV\u90c4
I5251
sV\u5fc6
I1397
sV\u664b
I1620
sV\u59ca
I3842
sV\u88d4
I2584
sV\u5457
I3726
sV\u7cdc
I4531
sV\u7f24
I4283
sV\u8165
I3065
sV\u8bfe
I1175
sV\u5085
I1566
sV\u818f
I2641
sV\u620e
I3160
sV\u4e91
I848
sV\u7597
I768
sV\u501a
I3474
sV\u63a3
I4344
sV\u6da7
I3455
sV\u4e26
I5557
sV\u57ab
I2176
sV\u752c
I3534
sV\u51af
I1259
sV\uff30
I3768
sV\u5bb3
I709
sV\u7934
I3657
sV\u82b9
I2916
sV\u6d3c
I3343
sV\u5740
I1617
sV\u5144
I1706
sV\u64cd
I1236
sV\u6ed1
I1305
sV\u4f50
I2621
sV\u68d5
I3051
sV\u7656
I3354
sV\u2164
I4912
sV\u77eb
I2834
sV\u65f7
I3370
sV\u8378
I5140
sV\u69ff
I3077
sV\u9601
I2215
sV\u9005
I3752
sV\u7184
I3108
sV\u5d07
I2007
sV\u840d
I2211
sV\u658c
I1892
sV\u8815
I3071
sV\u6994
I3285
sV\u5398
I1674
sV\u9a9e
I4590
sV\u6025
I795
sV\u542d
I4137
sV\u912f
I4803
sV\u5835
I1529
sV\u8537
I3244
sV\u8fd0
I298
sV\u67e0
I2715
sVe
I594
sV\u6279
I547
sV\u80fa
I2872
sV\u6c7d
I985
sV\u5981
I5339
sV\u5f85
I673
sV\u5589
I2628
sV\u888b
I1517
sV\u8e8f
I3067
sV\u7a97
I1161
sV\u5916
I145
sV\u6ca3
I3279
sV\u8428
I1434
sV\u54b3
I2510
sV\u7634
I5606
sV\u6c38
I1031
sV\u83bd
I4046
sV\u79c1
I934
sV\u9b42
I2249
sV\u7fc5
I3053
sV\u5e44
I4738
sV\u9146
I4295
sV\u75c9
I3820
sV\u5448
I1508
sV\u6bcd
I625
sV\u8d4e
I3527
sV\u61d1
I5381
sV\u8352
I2123
sV\u7956
I1455
sV\u7f5a
I978
sV\u6b62
I741
sV\u9a6c
I342
sV\u7eef
I2616
sV\u8c78
I5490
sV\u4f7a
I5282
sV\u66ff
I1654
sV\u5207
I733
sV\u9509
I4418
sV\u8111
I946
sV\u8715
I3671
sV\u9996
I367
sV\u5c98
I4672
sV\u9f9a
I2464
sV\u731d
I3111
sV\u8ba2
I913
sV\u4ea4
I198
sV\u982b
I4730
sV\u9e2f
I4123
sV\u73b2
I1556
sV\u803b
I2768
sV\u5bc2
I2876
sV\u9ec4
I536
sV\u7247
I445
sV\u51c6
I419
sV\u86d4
I5156
sV\u68e0
I3041
sV\u6ee4
I2999
sV\u56f4
I644
sV\u5881
I5323
sV\u6212
I1699
sV\u7b97
I629
sV\u5e1a
I4022
sV\u779f
I4786
sV\u541e
I2333
sV\u6da3
I3938
sV\u63a7
I578
sV\u7b2c
I200
sV\u90b1
I2275
sV\u7130
I2800
sV\u55b3
I4529
sV\u82bd
I2829
sV\u78c1
I2619
sV\u7ec5
I3865
sV\u60d1
I2025
sV\u7856
I5296
sV\u5cd9
I3222
sV\u745e
I1353
sV\u4ee5
I39
sV\u7fef
I4874
sV\u9170
I4135
sV\u5272
I2287
sV\u9774
I3184
sV\u837c
I3764
sV\u67ff
I2159
sV\u7980
I3673
sV\u5d03
I4421
sV\u4f0f
I1810
sV\u9896
I1432
sV\u949e
I2590
sV\u6821
I478
sV\u6e25
I4851
sV\u86aa
I5134
sV\u5a2d
I5553
sV\u7cae
I1196
sV\u6eba
I2882
sV\u873f
I4212
sV\u5ac2
I2873
sV\u56ca
I2239
sV\u6f4f
I5259
sV\u5b57
I724
sV\u575f
I3054
sV\u8861
I1451
sV\u8469
I2575
sV\u65e8
I2170
sV\u51f0
I2709
sV\u6c79
I3459
sV\u627d
I5587
sV\u5b81
I865
sV\u8693
I4467
sV\u7897
I2087
sV\u749f
I4628
sV\u8c24
I3107
sV\u7230
I5511
sV\u7434
I2023
sV\u8fb9
I531
sV\u6e38
I386
sV\u7bc1
I5439
sV\u5a40
I4907
sV\u954a
I4616
sV\u7b56
I587
sV\u5fd9
I1173
sV\u51dd
I1868
sV\u80e7
I4008
sV\u7cef
I3703
sV|
I3833
sV\u5e03
I351
sV\u9709
I3073
sV\u7688
I5345
sV\u2192
I3003
sV\uff19
I2235
sV\u6b21
I125
sV\u6d25
I1349
sV\u85aa
I1540
sV\u592d
I3445
sV\u9633
I632
sV\ufe43
I5571
sV\u9cc4
I3385
sV\u4fce
I5654
sV\u6653
I992
sV\u7ed8
I2188
sV\u915d
I3012
sV\u70dc
I4984
sV\u796d
I2422
sV\u58ec
I4345
sV\u8bf6
I5617
sV\u8dfa
I4668
sV\u87fe
I3617
sV\u7802
I2851
sV\u9187
I2487
sV\u7206
I765
sV\u740a
I4784
sV\u6e0e
I2854
sV\u6012
I1906
sV\u739b
I1741
sV\u5c1a
I1081
sV\u759f
I4818
sV\u561e
I5250
sV\u8d24
I1318
sV\u61a7
I3802
sV\u5bab
I1109
sV\u94b5
I3922
sV\u8eb9
I5672
sV\u6f38
I5547
sV\u80bd
I4828
sV\u5b40
I4281
sV\u7cc5
I4857
sV\u68cd
I2548
sVR
I1457
sV\u765e
I4698
sV\u6862
I4391
sV\u81e7
I3566
sV\u6266
I5432
sV\u996c
I4898
sV\u77f3
I649
sV\u8f78
I3215
sV\u817c
I4261
sV\u7b80
I860
sV\u5f03
I1322
sV\u9609
I4446
sV\u6390
I3149
sV\u5f98
I3277
sV\u519c
I340
sV\u6a21
I706
sV\u82a6
I2492
sV\u5435
I2017
sV\u4e39
I1287
sV\uff43
I4497
sV\u6d4f
I2525
sV\u4ece
I159
sV\u5957
I809
sV\u7fd8
I2855
sV\u4f63
I2937
sV\u6de4
I3090
sV\u59ec
I3313
sV\u53f0
I243
sV\u4ff8
I3965
sV\u607d
I4700
sV\u86fe
I4614
sV\uff02
I3898
sV\u5b85
I1256
sV\u5189
I3004
sV\u3008
I3123
sV\u4f8d
I2994
sV\u690e
I2993
sV\u8093
I5219
sV\u5d16
I2667
sV\u961c
I2303
sV\u729f
I5107
sV\u4f22
I4031
sV\u66a7
I3264
sV(
I324
sV\u5cab
I5064
sV\u7430
I3784
sV\u50b3
I5451
sV\u6838
I619
sV\u663c
I3064
sV\u5c40
I240
sV\u4e4c
I1254
sV\u94db
I4175
sV\u715e
I3373
sV\u6f62
I4108
sV\u6566
I1982
sV\u7aef
I1046
sV\u9274
I1420
sV\u62ff
I783
sV\u5803
I4176
sV\u806a
I2298
sV\u7a84
I2665
sV\u8511
I3869
sV\u8315
I5497
sV\u5f2d
I5119
sV\u5531
I989
sV\u61be
I2280
sV\u53ca
I213
sV\u82d4
I3763
sV\u545b
I3509
sV\u8d61
I3300
sV\u6ce0
I5470
sV\u8169
I4363
sV\u60e8
I1926
sV\u6979
I4733
sV\u8bfa
I1237
sV\u81fe
I5000
sV\u5c81
I434
sV\u7406
I101
sV\u8d8b
I1600
sV\u680e
I4593
sV\u5c16
I1829
sV\u971c
I2693
sV\u739f
I3888
sV\u4e22
I1766
sV\u67a7
I5178
sV\uff2c
I4393
sV\u94b1
I467
sV\u7530
I1020
sV\u51b3
I369
sV\u7334
I2572
sV\u9e42
I5647
sV\u5148
I307
sV\u705e
I3495
sV\u89e3
I214
sV\u626a
I4703
sV\u9570
I5154
sV\u65fb
I4082
sV\u877c
I5255
sV\u9009
I406
sV\u6590
I3561
sV\u9a9a
I2547
sV\u6c21
I4705
sV\u82aa
I4722
sV\u5e2d
I680
sV\u5431
I3983
sV\u76b2
I4860
sV\u853b
I4019
sV\u54c6
I4357
sV\u6d4b
I732
sV\u85d0
I4640
sV\u83d4
I5099
sV\u5f57
I3940
sV\u79d8
I926
sV\u77dc
I3792
sV\u535f
I5191
sV\u30de
I5291
sV\u8c61
I576
sV\u6de0
I5052
sV\u8069
I5262
sV\u7275
I1728
sV\u5f81
I901
sV\u5389
I1647
sV\u710a
I3448
sV\u6512
I2666
sV\u2014
I448
sV\u7c97
I1904
sV\u591a
I48
sV\u52b3
I1017
sV\u8bb9
I3197
sV\u7fc1
I2278
sV\u73c9
I3719
sV\u914a
I5651
sV\u67d1
I3886
sV\u9cd7
I3939
sV\uff56
I4996
sV\u795a
I5438
sV\u55dd
I3741
sV\u4fe1
I261
sV\u7eeb
I4816
sV\u72f3
I5222
sV\u9074
I3383
sV\u6cf7
I4615
sV\u4f76
I4905
sV\u5a03
I1588
sV\u4e0b
I73
sV\u6c8c
I4178
sV\u6094
I2063
sV\u7b19
I3954
sV\u5d2d
I3018
sV\u75b2
I2152
sV\u8c37
I1350
sV\u803f
I2824
sV\u6253
I266
sV\u955d
I5328
sV\u74dc
I1828
sV\u62e8
I1518
sV\u56f0
I826
sV\u95f2
I1652
sV\u6b79
I2966
sV\u5885
I2390
sV\u8f8b
I5237
sV\u8393
I2720
sV\u5e16
I1614
sV\u951c
I5236
sV\u719f
I1179
sV\u65a7
I2983
sV\u8328
I2343
sV\u9cad
I5049
sV\u90b5
I1086
sV\u78c5
I2653
sV\u5944
I3994
sV\u9646
I840
sV\u5348
I474
sV\u60d5
I2180
sV\u785a
I4426
sV\u8be3
I3848
sV\u6666
I3640
sV\u606a
I3780
sV\u79ef
I571
sV\u6df7
I1557
sV\u67fb
I5382
sV\u61ff
I2973
sV\u7984
I2939
sV\u5507
I2438
sV\u8c0d
I2483
sV\u6d8c
I2222
sV\u8611
I3131
sV\u6790
I1035
sV\u8015
I2009
sV\u6194
I3909
sV\u5b98
I464
sV\u989a
I4206
sV\u559c
I751
sV\u6e21
I2033
sV\u4fa0
I1712
sV\u80aa
I1782
sV\u5631
I2423
sV\u8d37
I1252
sV\u6eb6
I2690
sV\u873b
I5036
sV\u25bc
I5611
sV\u6f4b
I4757
sV\u8dcc
I1504
sV\u575b
I1437
sV\u6fe0
I4318
sV\u8865
I704
sV\u94f2
I2785
sV\u7075
I1366
sV\u6a79
I5374
sV\u8302
I2441
sV\u5e14
I5086
sV\u8297
I3587
sV\u7624
I2329
sV\u822c
I1036
sV\u75b9
I3384
sV\u573a
I119
sV\u6342
I3126
sV\u7b52
I2656
sV\u62d7
I4180
sV\u8d5e
I1294
sV\u74e3
I3262
sV\u5664
I5206
sV\u80eb
I4016
sV\u626c
I1281
sV\u6101
I2430
sV\u300b
I137
sV\u9890
I3475
sV\u7f15
I3252
sV\u679a
I1959
sV\u8b1d
I5639
sV\u6d9e
I4778
sV\u662f
I10
sV\u8bb2
I798
sV\u7237
I1360
sV\u54b8
I1937
sV\u783b
I5583
sV\u5951
I1596
sV\u78d0
I4422
sV\u5f55
I786
sV\u7ed4
I4941
sV\u6559
I329
sV\u5fea
I5249
sV\u65ee
I4989
sV\u5e7f
I371
sV\u6b87
I5054
sV\u8e0a
I3391
sV\u7d93
I5542
sV\u6518
I3699
sV\u8f9f
I2296
sV\u5ca9
I1468
sV\u832c
I3658
sV\u9b3c
I2107
sV\u5c3e
I1404
sV\u80c1
I1767
sV\u6846
I2279
sV\u51cb
I3988
sVV
I1185
sV\u69db
I2566
sV\u865a
I1334
sV\u75e3
I4349
sV\u5764
I1896
sV\u8df3
I1333
sV\u6f74
I5284
sV\u7578
I3206
sV\u7b7c
I4518
sV\u6001
I551
sV\u8180
I2551
sV\u548e
I3304
sV\u9990
I5444
sV\u5a92
I591
sV\u6096
I3562
sV\u4f1f
I1040
sV\u612b
I3937
sV\u7eaa
I446
sV\u672f
I488
sV\u7337
I4524
sV\u8543
I4665
sV\u67c4
I3339
sV\u914b
I3715
sV\u524d
I67
sV\u5851
I1694
sV\u5e55
I1034
sV\u7fd4
I1916
sV\u5eea
I5634
sV\u5377
I1551
sV\u8102
I1422
sV\u4e08
I1392
sV\u500c
I4788
sV\u970e
I5326
sV\u5c14
I566
sV\u98a7
I4561
sV\u5fa9
I5308
sV,
I459
sV\u6db5
I1884
sV\u8c34
I2562
sV\u79bd
I1638
sV\u83c1
I3547
sV\u6b46
I3679
sV\u52cb
I2488
sV\u6d4a
I3196
sV\u91cd
I121
sV\u5ed3
I3143
sV\u5464
I4371
sV\u82eb
I5313
sV\u606c
I3634
sV\u6c74
I4674
sV\u57f9
I973
sV\u7678
I4985
sV\u9afb
I5007
sV\u787c
I4459
sV\u6301
I265
sV\u6f09
I4825
sV\u7b11
I909
sV\u9a90
I5138
sV\u5992
I3237
sV\u9c94
I5395
sV\u6396
I4040
sV\u9525
I3740
sV\u7a3b
I2308
sV\u7c3f
I3105
sV\u514d
I677
sV\u5b51
I4641
sV\u88dc
I5455
sV\u4fde
I2615
sV\u7565
I890
sV\u94e4
I4103
sV\u5be6
I5300
sV\u7f69
I2257
sV\u816d
I3155
sV\u4e73
I1501
sV\u8d75
I886
sV\u5077
I1289
sV\u997d
I3912
sV\u5c7f
I2256
sV\u738b
I311
sV\u8c0a
I2339
sV\u758f
I1830
sV\u960e
I2980
sV\u5d14
I1659
sV\u8d9f
I2076
sV<UNK>
p3
I1989
sV\u52a1
I136
sV\u97a3
I3655
sV\uff28
I4300
sV\u60ad
I5268
sV\u8d34
I1012
sV\u5236
I144
sV\u9738
I1814
sV\u53cb
I292
sV\u6c4a
I4764
sV\u7852
I3258
sV\u9cd5
I5079
sV\u6bdb
I940
sV\u845a
I5063
sV\u5360
I811
sV\u77e3
I3731
sV\u9062
I4530
sV\u5564
I2961
sV\u79e7
I3744
sV\u6d74
I1968
sV\u56f9
I4296
sV\u6405
I2953
sV\u8584
I1843
sV\u8f88
I1813
sV\u568e
I4146
sV\u5892
I4636
sV\u6296
I2792
sV\u5723
I1726
sV\u5927
I19
sV\u7aa6
I2509
sV\u9e29
I4969
sV\u632b
I2694
sV\u7caa
I2865
sV\u652f
I387
sV\u6f33
I1733
sV\u57b8
I5231
sV\u94ba
I5146
sV\u9ebe
I4411
sV\u4e49
I613
sV\u5c55
I162
sV\u4ede
I5346
sV\u7261
I3208
sV\u5ae6
I2596
sV\u5cea
I4020
sVm
I1098
sV\u4f73
I1060
sV\u5177
I527
sV\u987d
I2468
sV\u8702
I2048
sV\u748b
I3765
sV\u560c
I4370
sV\u4f9d
I601
sV\u90a3
I404
sV\u53a5
I3799
sV\u59a9
I3964
sV\u67ad
I2516
sV\u6bb5
I553
sV\u71b9
I4014
sV\u9038
I1122
sV\u533a
I89
sV\u7fbd
I1969
sV\u85c1
I4711
sV\u6742
I1096
sV\u83c5
I3785
sV\u4ec7
I2505
sV\u6d46
I2500
sV\u89c9
I634
sV\u714e
I2673
sV\uff52
I5463
sV\u6cdb
I1538
sV\u835a
I4924
sV\u895e
I5331
sV\u9762
I107
sV\u7ee7
I714
sV\u82ef
I3360
sV\u6c70
I2050
sV\u88f3
I4266
sV\u96f7
I1121
sV\u51f9
I3400
sV\u7078
I4161
sV\u5ffd
I1844
sV\u5f92
I1448
sV\u7b15
I4977
sV\u9521
I1913
sV\u5e27
I4621
sV\u7da6
I4720
sV\u7a3f
I1555
sV\u64c0
I4437
sVC
I771
sV\u62c4
I4002
sV\u8e47
I4978
sV\u574d
I3675
sV\u5b55
I1241
sV\u94e0
I4817
sV\u5de6
I762
sV\u98e8
I4532
sV\u73fa
I3223
sV\u5a7f
I2978
sV\u8c06
I4807
sV\u221a
I5620
sV\u91a3
I5202
sV\u58a9
I2411
sV\u6cb1
I3970
sV\u8d30
I4233
sV\u4e32
I2081
sV\u5436
I4950
sV\u70b9
I140
sV\u523a
I1341
sV\u7ebd
I1436
sV\u6c46
I5391
sV\u96cd
I3329
sV\u59d3
I958
sV\u4f5c
I43
sV\u9662
I188
sV\u5364
I3379
sV\u7178
I5071
sV\u6401
I2982
sV\u2103
I1594
sV\u6809
I4771
sV\u8019
I5402
sV\u2198
I5232
sV\u629a
I1653
sV\u8e1d
I3351
sV\u5f27
I3590
sV\u652b
I4474
sV\u632f
I1601
sV\u80ae
I4200
sV\u8eb2
I2126
sV\u7737
I3519
sV\u63c4
I4638
sV\u5c51
I3330
sV\u5a55
I2935
sV\u6059
I4205
sV\u8fdc
I719
sV\u56e2
I463
sV\u5ce6
I3794
sV\u60ee
I3956
sV\u5777
I3548
sV\u74f6
I1580
sV\u6c87
I5177
sV\u768b
I3696
sV\u540c
I111
sV\u5e10
I2913
sV\u6218
I339
sV\u57a1
I4506
sV\u7620
I4359
sV\u51a5
I3570
sV\u9ca7
I5627
sV\u65ad
I621
sV\u8bc9
I564
sV\u50cf
I693
sV\u996a
I3172
sV\u80ef
I4688
sV\u4ff1
I1763
sV\u94f7
I5673
sV\u53f9
I1808
sV\u5dfd
I5213
sV\u7c7c
I5495
sV\u7f14
I2465
sV\u8680
I2922
sV\u4f86
I5128
sV\u300f
I3722
sV\uff11
I1217
sV\u4e1b
I2541
sV\u8d1d
I1553
sV\u5c27
I3571
sV\u602f
I3790
sV\u91ba
I4375
sV\u8c47
I4783
sV\u964b
I2925
sV\u904f
I2380
sV\u5955
I2828
sV\u7761
I1129
sV\u8f71
I4292
sV\u5477
I3478
sV\u77f6
I2696
sV\u5e7b
I2169
sV\u718f
I2780
sV\u5914
I5186
sV\u8f9b
I1572
sV\u7720
I1795
sV\u50a5
I5243
sV\u7b28
I3397
sV\u64ad
I767
sV\u852c
I1526
sV\u6eb1
I5125
sV\u68b5
I4067
sV\u8934
I5277
sV\u5636
I4112
sV\u72b9
I2053
sV\u503a
I1398
sV\u7cbd
I3742
sV\u57cb
I2003
sV\u51cf
I705
sV\u9ed1
I776
sV\u5bd3
I1603
sV\u98d5
I5022
sV\u65d7
I1403
sV\u6fdb
I2921
sV\u805a
I1014
sV\u69df
I3112
sV\u5760
I2208
sV\u73e3
I4830
sV\u9e66
I3578
sV\u656c
I1475
sV\u95f7
I2446
sV\u6005
I4507
sV\u4e86
I13
sV\u740d
I3442
sV\u9994
I5661
sV\u6696
I1174
sV\u609a
I3440
sV\u9621
I5462
sV\u5323
I4075
sV\u5d27
I5623
sV\u7ea6
I436
sV\u672b
I1246
sV\u82ae
I4115
sV\u7537
I306
sV\u96b6
I2995
sV\uff3b
I4273
sV\u90ba
I3993
sV\u8343
I4284
sV\u83d8
I4489
sV\u6c5d
I3256
sV\u62ee
I3876
sV\u5577
I5632
sV\u5f7b
I1113
sV\u6c83
I1772
sV\u8106
I2373
sV\u6c18
I5351
sV\u809b
I3352
sV\u7428
I3685
sV0
I9
sV\u5f3a
I216
sV\u553e
I3331
sV\u89c1
I396
sV\u8fc5
I1307
sV\u85c9
I3097
sV\u91d1
I180
sV\u7352
I3369
sV\u5468
I359
sV\u6070
I1933
sV\u6674
I2219
sV\u53fd
I4369
sV\u6901
I3608
sV\u9a8c
I604
sV\u9694
I1384
sV\u77aa
I3476
sV\u6e2f
I726
sV\u83b2
I1939
sV\u7a37
I4699
sV\u5cb8
I1243
sV\u68c0
I460
sV\u8247
I1729
sV\u9e4f
I1498
sV\u5151
I2175
sV\uff22
I4619
sV\u76d4
I2899
sV\u6d59
I1286
sV\u4fda
I4323
sV\u82dc
I4933
sV\u94e8
I4644
sV\u6dee
I1802
sV\u8171
I4234
sV\u5a77
I1944
sV\u507b
I4709
sV\u6387
I4482
sV\u8006
I4542
sV\u819b
I3807
sV\u5ea5
I5521
sV\uff24
I3827
sV\u54a9
I5305
sV\u7528
I76
sV\u60b1
I5476
sV\u8734
I5037
sV\u7cb9
I2700
sV\u543e
I2366
sV\u88c1
I1522
sV\u84c9
I2515
sV\u59cb
I465
sV\u5fcf
I3350
sV\u90d1
I1104
sV\u55d3
I3000
sV\u7252
I4352
sV\u96d5
I1867
sV\u6bd7
I3624
sV\u8e5a
I5031
sV\u5960
I2707
sV\u5f64
I2475
sV\u966a
I1413
sV\u6170
I1470
sV\u6e05
I403
sV\u8f84
I3314
sV\u7a0d
I2026
sV\u7011
I3199
sV\u8c19
I4134
sV\u649e
I1277
sV\u9e25
I3163
sV\u6f2f
I3903
sV\u94be
I2945
sV\u8d43
I2726
sV\u4e45
I982
sV\u83dc
I793
sV\u95e8
I186
sV\u4f6f
I4465
sV\u6cee
I4921
sVq
I3326
sV\u517b
I422
sV\u7efa
I5019
sV\u6e83
I2463
sV\u8902
I4569
sV\u8306
I4712
sV\u9f0e
I2498
sV\u7693
I3441
sV\u601c
I2813
sV\u5ba1
I496
sV\u7a20
I3406
sV\u57a9
I5423
sV\u69ad
I4356
sV\u8230
I1068
sV\u7fb9
I3227
sV\u903c
I1704
sV\u573e
I1570
sV\u8bc1
I320
sV\u6942
I3414
sV\u6346
I2773
sV\uff4e
I4498
sV\u4e58
I837
sV\u62db
I849
sV\u8d5a
I1737
sV\u7ee3
I2760
sV\u70e7
I1136
sV\u5668
I701
sV\u6270
I1637
sV\u86f3
I5496
sV\u51fd
I2497
sV\u707c
I3325
sV\u94ff
I3951
sV\u6709
I14
sV\u988c
I3750
sV\u5192
I1395
sV\u6b96
I1740
sV\u679e
I4220
sV\u6c2f
I3328
sV\u6633
I5203
sV\u7837
I4567
sV\u5eb8
I2556
sV\u6cc4
I1783
sVG
I938
sV\u66c8
I5561
sV\u5351
I2938
sV\u72d0
I2826
sV\u5555
I4913
sV\u80dc
I1072
sV\u53e6
I720
sV\u96e8
I1160
sV\u55ea
I4864
sV\u6fee
I4185
sV\u77fe
I4925
sV\u8206
I1753
sV\u5310
I4789
sV\u9012
I1371
sV\u5514
I5187
sV\u7b20
I3607
sV\u7f30
I4157
sV\u7728
I3635
sV\u68ad
I3253
sV\u62b1
I1336
sV\u64b5
I4647
sV\u5a36
I2426
sV\u7eb9
I1975
sV\u5c3a
I1987
sV\u70bd
I4653
sV\u4fc3
I861
sV\u6842
I1698
sV\u86c9
I5535
sV\u644a
I1759
sV\u4f58
I3819
sV\u8c5a
I2421
sV\u865e
I2970
sV\u71e7
I5453
sV\u5768
I4331
sV\u8beb
I2942
sV\u8def
I167
sV\u6574
I393
sV\u95ff
I5337
sV\u8d84
I5645
sV\u6609
I4821
sV\u8788
I5666
sV\u780d
I2332
sV\u6c9a
I4527
sV\u80b2
I402
sV\u9ab6
I4955
sV\u51bc
I4612
sV\u96be
I420
sV\u6dc4
I4496
sV\u5251
I1738
sV\u73d0
I4447
sV\u9753
I2466
sV\u5455
I2741
sV\u75d4
I3746
sV\u8fd8
I99
sV\u54ea
I889
sV\u8475
I3249
sV\u907d
I5578
sV\u76fe
I1574
sV\u6687
I3231
sV\u5e0c
I737
sV\u5410
I1505
sV\u5ba5
I3559
sV\u96a7
I2586
sV\u0430
I5132
sV\u79b9
I3205
sV\u8bc5
I3755
sV\u5ccb
I5159
sV\u794e
I4000
sV\u8d56
I1880
sV\u62df
I1612
sV\u5c60
I2371
sV\u4fed
I1981
sV\u80f3
I3276
sV\u767c
I5362
sV\u6d01
I1215
sV\u6109
I2650
sV\uff0d
I2336
sV\u7511
I5528
sV\u5792
I2860
sV\u7315
I3552
sV\u6b9a
I5110
sV\u4eac
I267
sV\u6a2f
I4824
sV\u56bc
I2909
sV\u25c6
I3883
sV\u7ecc
I4970
sV\u9053
I129
sV\u5355
I317
sV\u88d8
I3872
sV\u55e6
I4226
sV\u90e8
I52
sV\u53ea
I294
sV\u547b
I4171
sV\u527f
I2901
sV\u6787
I4386
sV\u5510
I1085
sV\u8f97
I2832
sV\u859b
I2229
sV\u7d20
I650
sV\u7b24
I5446
sV\u50a9
I4090
sV\u62b5
I1390
sV\u8334
I4441
sV\u503e
I1680
sV\u6446
I1296
sV\u9ecd
I4747
sV\u5b64
I1972
sV\u5168
I57
sV\u8bef
I1064
sV\u6570
I271
sV\u81f3
I256
sV\u58f9
I3048
sV\u7978
I2088
sV\u95fb
I617
sV\u56fd
I20
sV\u8188
I5526
sV\u9f8c
I5245
sV\u4f17
I315
sV\uff1b
I247
sV\u7ea2
I509
sV\u4fac
I4303
sV\uff37
I5260
sV\u9cb6
I3952
sV\u753b
I956
sV\u9aba
I5418
sV\u733f
I3630
sV\u90be
I5449
sV\u6dc0
I2252
sV\u8747
I2723
sV\u61c8
I2598
sV\u7fcc
I4053
sV\u9b4f
I1669
sV\u54e6
I2456
sV\u8e6d
I3165
sV\u68ee
I1328
sV\u8471
I2365
sV\u66f2
I1023
sV\u5f77
I3919
sV\u9879
I283
sV\u557b
I5200
sV\u7afa
I4330
sV\u537f
I2157
sV\u4e00
I4
sV\u6487
I3593
sV\u810a
I2844
sV\u9512
I4731
sV\u5014
I4138
sV\u641c
I1615
sV\u809f
I5414
sV\u5fa1
I1992
sV\u59a5
I2028
sV\u94a7
I2755
sV\u53a9
I5499
sV\u7228
I5516
sV\u8c2c
I3218
sV4
I58
sV\u593a
I1402
sV\u75bd
I5302
sV\u533e
I3583
sV\u8fc1
I1326
sV\u89c5
I3089
sV\u6746
I2011
sV\u03c9
I3789
sV\u6cd7
I3017
sV\u60df
I2846
sV\u835e
I4078
sV\u7ae3
I2578
sV\u916a
I3579
sV\u6670
I2154
sV\u5bf9
I35
sV\u96fb
I5680
sV\u55fd
I2879
sV\u6905
I2106
sV\u8884
I3821
sV\u6309
I639
sV\u8288
I5342
sV\u9690
I1140
sV\u7115
I2779
sV\u5a23
I4037
sV\u5427
I1082
sV\u8bae
I236
sV\u6233
I3347
sV\u62c8
I4228
sV\u7ccc
I5577
sV\u5751
I2139
sV\u76d0
I1691
sV\u70d4
I4772
sV\u6b59
I4578
sV\u655d
I5294
sV\u7f61
I4485
sV\u9ee0
I5085
sV\u5de2
I2318
sV\u7965
I1483
sV\u8d6d
I4727
sV\u567b
I4894
sV\u507f
I1172
sV\u73fe
I4981
sV\u6b83
I3895
sV\u6587
I190
sV\u798f
I502
sV\u221e
I4662
sV\uff20
I5016
sV\u7924
I5153
sV\u52a9
I513
sV\u6cad
I5657
sV\u8d2c
I2931
sV\u6c42
I310
sV\u88c5
I534
sV\u9ccd
I3947
sV\u8feb
I1513
sV\u6d6c
I5389
sV\u6770
I1190
sV\u54fd
I3674
sV\u6805
I3016
sV\u6209
I5420
sV\u5492
I3039
sV\u841d
I1842
sV\u9e21
I1199
sV\u5527
I5183
sV\u6f2b
I1546
sV\u84b2
I2246
sV\u5bb8
I4508
sV\u6fc0
I878
sV\u5055
I4054
sV\u4ed6
I46
sV\u6a59
I2513
sV\u8bd8
I5466
sV\u85dc
I4881
sV\u7269
I220
sV\u8671
I4611
sV\uff29
I4385
sVu
I1219
sV\u7ef6
I5024
sV\u9a79
I3728
sV\u78fa
I3832
sV\u7483
I1918
sV\u6c93
I3251
sV\u4e14
I671
sV\u989b
I5018
sV\u5b9d
I659
sV\u9e9f
I2923
sV\u6020
I3138
sV\u6c28
I2629
sV\u552e
I537
sV\u65b9
I50
sV\u8a3c
I5112
sV\u89d1
I3960
sV\u72d7
I1509
sV\u5458
I93
sV\u975a
I5320
sV\u7edf
I343
sV\u8966
I5089
sV\u90eb
I3110
sV\u53ed
I3598
sV\u96ef
I2618
sV\u5ff5
I874
sV\u82f7
I4149
sV\u6478
I1722
sV\u9080
I1351
sV\u5382
I1061
sV\u5986
I1974
sV\u9c88
I3786
sV\u5f8a
I3278
sV\u6f15
I4655
sV\u5217
I596
sV\u9519
I943
sV\u63a2
I981
sV\u8725
I4939
sV\u8d29
I1774
sV\u6237
I442
sV\u87ba
I2688
sV\u8dbe
I3774
sV\u5141
I1613
sVK
I1214
sV\u62cc
I2815
sV\u864f
I3990
sV\u25ce
I3437
sV\u4f55
I482
sV\u6ed4
I3589
sV\u7559
I660
sV\u7b5d
I4102
sV\u5dde
I362
sV\u2463
I4469
sV\u6765
I38
sV\u86e4
I4304
sV\u6d69
I1622
sV\u4fea
I3153
sV\u9971
I1819
sV\u7583
I5478
sV\u5704
I4297
sV\u618b
I3305
sV\u840e
I2875
sV\u6d93
I4872
sV\u5499
I3522
sV\u7518
I1544
sV\u9f9f
I2996
sV\u8ba7
I4601
sV\u6d28
I5610
sV\u542e
I4796
sV\u78b1
I2587
sV\u5a32
I5276
sV\u7eb5
I1658
sV\u90c1
I2111
sV\u96c5
I1354
sV\u5bc7
I3293
sV\u82cd
I2223
sV\u5b5c
I2948
sV\u7fdf
I3001
sV\u6578
I5388
sV\u6b7c
I1764
sV\u5e8a
I1142
sV\u620d
I3712
sV\u6811
I1192
sV\u5317
I192
sV\u7096
I2972
sV\u5f1f
I1205
sV!
I1562
sV\u62a2
I843
sV\u68a6
I1043
sV\u8c29
I3388
sV\u6eaa
I1708
sV\u772f
I3870
sV\u94ae
I2910
sV\u9b47
I5098
sV\u5c49
I3545
sV\u814b
I3913
sV\u69d0
I3452
sV\u8d53
I4197
sV\u7459
I4235
sV\u56da
I2725
sV\u6c69
I4635
sV\u8de8
I1319
sV\u516b
I676
sV\u4eea
I1272
sV\u576f
I4164
sV\u74ee
I4549
sV\u60f6
I3917
sV\u4f7f
I370
sV\u6cfe
I3174
sV\u5200
I1280
sV\u9102
I2657
sV\u5404
I258
sV\u7887
I5378
sV\u5e08
I457
sV\u8912
I3584
sV\u9097
I5355
sV\u9a9b
I4687
sV\u9c9f
I3900
sV\u7bb1
I1386
sV\u8638
I4160
sV\u674e
I332
sV\u8bd1
I1678
sV\u4ed3
I2044
sV\u7cdf
I2634
sV\u8b66
I227
sV\u51ed
I1563
sV\u94ef
I4927
sV\u7301
I5538
sV\u7f09
I2699
sV\u9e88
I5433
sV\u610d
I5426
sV\u808c
I1714
sV\u7396
I3861
sV\u759a
I3214
sV\u7f9e
I2605
sV\u6daa
I4243
sV\u50ac
I2012
sV\u742f
I5027
sV\u8fbe
I328
sV\u5341
I287
sV\u7ec8
I545
sV\u6cd4
I4671
sV\u53d6
I352
sV\u795d
I1445
sV\u6361
I1932
sV\u30ec
I5292
sV\u77ee
I3085
sV\u5e73
I181
sV\u63f6
I4637
sV\u65fa
I1934
sV\u5300
I3026
sV\u9002
I827
sV\u5f08
I3216
sV\u6320
I3450
sV\u4ea9
I1665
sV\u70ad
I2136
sV\u66b9
I5097
sV\u4e3e
I487
sV\u57c3
I1872
sV\u94c5
I2905
sV\u7a46
I2374
sV\u9e5e
I4396
sVb
I1611
sV\u8c6a
I1045
sV\u95ef
I1907
sV\u8bfb
I929
sV\u697c
I612
sV\u7405
I3260
sV\u9f88
I3896
sV\u6a11
I4965
sV\u8042
I2806
sV\u8d94
I5644
sV\u9619
I4097
sV\u5b1b
I2736
sV\u8425
I433
sV\u8e29
I2386
sV\u732b
I1751
sV\u6caa
I2135
sV\u51ac
I922
sV\u752f
I3537
sV\u5bb0
I2606
sV\uff33
I4072
sV\u84ba
I5690
sV\u5241
I3984
sV\u73c0
I3015
sV\u785d
I2730
sV\u83e0
I2889
sV\u85e4
I2570
sV\u536b
I584
sV\u906d
I864
sV\u76ee
I132
sV\u9a71
I1697
sV\u8679
I2200
sV\u887d
I5241
sV\u6893
I3210
sV\u5199
I833
sV\u77ad
I4316
sV8
I109
sV\u7b4a
I4704
sV\u614e
I1822
sV\u8dd1
I1019
sV\u8bd5
I507
sV\u76d7
I1378
sV\u9556
I3117
sV;
I1626
sV\u7adf
I1032
sV\u8d66
I3793
sV\u57ed
I5519
sV\u5df1
I290
sV\u7a74
I2413
sV\u6078
I4777
sV\u5782
I2440
sV\u9888
I2194
sV\u670d
I308
sV\u868c
I2420
sV\u6d11
I5228
sV\u9119
I4214
sV\u5a1f
I2191
sV\u8521
I1380
sV\u67a2
I2512
sV\u4e27
I2085
sV\u6da6
I1320
sV\u83ba
I3757
sV\u5345
I4799
sV\u72c4
I3037
sV\u5949
I1901
sV\u55d6
I4556
sV\u9edc
I5465
sV\u88e8
I3779
sV\u526f
I542
sV\u71ee
I4364
sV\u65f6
I26
sV\u8179
I1643
sV\u8f7d
I972
sV\u9602
I4130
sV\u658b
I3462
sV\u638f
I2396
sV\u7118
I4435
sV\u7f1c
I4049
sV\u6324
I1734
sV\u7cb1
I3659
sV\u8138
I1139
sV\u94c1
I525
sV\u77d7
I4057
sV\u8662
I5676
sV\u95eb
I2915
sV\u56ed
I620
sV\u776c
I4005
sV\u8dfb
I3132
sV\u4efd
I492
sV\u6f7c
I3656
sV\u8bff
I3773
sV\u9988
I2428
sV\u6c11
I54
sV\u4e92
I863
sV\u9019
I5658
sV\u5d1b
I2527
sV\u25a0
I1931
sV\u6ca6
I2837
sV\u752b
I2243
sV\u90ae
I1233
sV\u5bb4
I1735
sV\u6d3b
I229
sV\u834f
I5309
sV\u6bd4
I209
sV\u2163
I3890
sV\u6869
I2522
sV\u536f
I4547
sV\u5973
I123
sVy
I1276
sV\u5600
I2753
sV\u9502
I4050
sV\u5a08
I5254
sV\u830e
I2962
sV\u4e10
I4372
sV\u9497
I4148
sV\u5d9d
I4468
sV\u6620
I1067
sV\u6a28
I5173
sV\u30af
I5290
sV\u532e
I3642
sV\u8238
I4940
sV\u52c3
I2283
sV\u5cc7
I4673
sV\u634e
I4061
sV\u8fd1
I211
sV\u6d52
I3906
sV\u9756
I1597
sV\u7edb
I4521
sV\u915a
I3084
sV\u62e3
I3935
sV\u8f66
I66
sV\u90ef
I5074
sV\u5ff1
I4517
sV\u7701
I164
sV\u5582
I2564
sV\u9084
I5289
sV\u598a
I3683
sV\u5417
I1070
sV\u5e1b
I4238
sV\u8721
I2777
sV\u762b
I2473
sV\u54ac
I2245
sV\u7a33
I824
sV\u81ba
I3943
sV\u8bbe
I182
sV\u5145
I760
sVO
I1216
sV\u4f51
I2805
sV\u5bde
I3140
sV\u6761
I384
sV\u80e4
I4540
sV\u73ee
I5576
sV\u9975
I3878
sV\u5104
I2934
sV\u678b
I4809
sV\u4f10
I2104
sV\u6b93
I4463
sV\u8c12
I4719
sV\u9f9b
I3894
sV\u6124
I2147
sV\u522e
I2370
sV\u7eb1
I2232
sV\u62b9
I2485
sV\u8338
I3904
sV\u6cbd
I4502
sV\u8d3c
I2195
sV\u96c1
I2774
sV\u90c5
I2454
sV\u624e
I1346
sV\u88d5
I2109
sV\u79df
I830
sV\u63e3
I3024
sV\u8e66
I3451
sV\u54ed
I1657
sV\u7601
I4994
sV\u5482
I4962
sV\u5e86
I879
sV\u6e11
I5204
sV\u8f90
I2196
sV\u7696
I2592
sV\u5f1b
I3472
sV\u591f
I838
sV%
I313
sV\u712f
I4027
sV\u92ae
I3713
sV\u9cb2
I5416
sV\u86b6
I5618
sV\u80ba
I1869
sV\u693f
I4516
sV\u5a49
I1956
sV\u65cc
I4041
sV\u7259
I1245
sV\u50da
I2968
sV\u87e0
I5317
sV\u8be8
I4648
sV\u72ee
I2439
sV\u5b73
I5384
sV\u9875
I1852
sV\u60fa
I4170
sV\u7287
I5507
sV\u5408
I142
sV\u6e8f
I5143
sV\u2191
I5400
sV\u9a97
I974
sV\u5d99
I5158
sV\u909b
I4277
sV\u539d
I3486
sV\u4fa5
I3056
sV\u6e24
I2609
sV\u7bad
I2189
sV\u5d2e
I5653
sV\u71b1
I5522
sV\u9634
I1542
sV\u4f3a
I3230
sV\u52c7
I1267
sV\u8bcd
I1141
sV\u6d4e
I411
sV\u70db
I3306
sV\u525c
I5520
sV\u76df
I1374
sV\u6ce3
I2941
sV\u62e7
I3416
sV\u9eef
I3539
sV\u7070
I1713
sV\u94f3
I5670
sV\u627c
I3710
sV\u7901
I2818
sV\u9880
I5424
sV\u7f05
I3068
sV\u9488
I916
sV\u6715
I4405
sV\u7f9a
I3745
sV\u561f
I3190
sV\u67aa
I1324
sV\u7433
I1908
sV\u603b
I268
sV\u7ec4
I278
sV\u5549
I5310
sV\u55de
I5304
sV\u586b
I1891
sV\u9171
I2521
sV\u5473
I866
sV\u73f2
I4759
sV\u5f04
I1993
sV\u7387
I643
sV\u9006
I1922
sV\u8c0e
I2408
sV\u6593
I4210
sV\u8212
I1338
sV\u5c99
I5635
sV\u919b
I3283
sV\u529d
I1648
sV\u731c
I1917
sV\u8da3
I1492
sV\u4ea5
I3158
sV\u2026
I645
sV\u6cb9
I728
sV\u8d38
I1154
sV\u4e3a
I22
sV\u62bd
I1347
sV\u833c
I5659
sV\u94c9
I4580
sV\u4fcf
I2410
sV\u6252
I2359
sV\u5d58
I4494
sV\u535c
I1839
sVf
I1965
sV\u56f5
I5669
sV\u8bf7
I662
sV\u6d78
I2601
sV\u81fb
I3423
sV\u7801
I1021
sV\u9980
I5280
sV\u9f84
I1087
sV\u7409
I3581
sV\u6615
I2975
sV\u5b17
I5271
sV\u571f
I593
sV\u749e
I3879
sV\u8821
I4870
sV\u60a6
I2016
sV\u8429
I5131
sV\uff2f
I5061
sV\u51b0
I844
sV\u7533
I975
sV\u8eba
I2038
sV\u79c0
I949
sV\u5e45
I921
sV\u30c6
I5293
sV\u75c8
I4589
sV\u67d4
I2083
sV\u6469
I1375
sV\u9a6d
I3368
sV\u9675
I1831
sV\u8c79
I2626
sV\u5c04
I1090
sV\u5608
I4092
sV\u6c8f
I5179
sV\u9897
I1824
sV\u5f99
I3576
sV\u949f
I797
sV\u6c24
I5488
sV\u6628
I490
sV\u75b5
I3553
sV\u6fb9
I4929
sV\u754a
I5315
sV\u85d5
I3412
sV\u505c
I654
sV\u975e
I428
sV\u60e7
I2588
sV\u786c
I1225
sV\u53f1
I4060
sV\u96f3
I4100
sV\u82fb
I5551
sV\u607c
I2357
sV\u84ff
I4934
sV\u5982
I189
sV\u7d05
I5664
sV\u3007
I3941
sV\u5386
I552
sV\u7709
I2307
sV\u558a
I1771
sV\u690d
I1417
sV\u6311
I1232
sV\u9f19
I5678
sV\u521b
I444
sV\u541f
I3531
sV\u8d25
I1009
sV\u6837
I312
sV\u8bb6
I2577
sV\u9e43
I4150
sV\u9047
I785
sV\u7f20
I2610
sV\u76c8
I1871
sV\u62d0
I1985
sV\u9ed8
I1467
sV\u90dc
I3499
sV\u6769
I5116
sV\u996d
I895
sV\u5c6f
I2407
sV\u5708
I1143
sV\u6b8b
I1327
sV\u8012
I4884
sV\u5e99
I1938
sV\uff18
I2313
sV\u6b20
I1462
sV\u8fa3
I1900
sV\u6728
I960
sV\u5e2e
I784
sV\u9534
I4169
sV\u9ac1
I5650
sV\u5fc3
I133
sV\u9cc5
I4070
sV\u51c7
I4952
sV\u96c9
I5091
sV\u6e4e
I5596
sV\u82d1
I2389
sV\u6052
I1565
sV\u515c
I2762
sV\u8862
I3801
sV\u97f3
I812
sV\u7574
I3133
sV\u6f78
I4520
sV\u85ff
I5185
sV\u4e8e
I70
sV\u6211
I53
sV\u7a96
I3393
sV\u901d
I2337
sV\u68a2
I3660
sV\u8c25
I4685
sV\u7b2b
I5167
sV\u7d2f
I1255
sV\u653f
I92
sV\u5c45
I497
sV\u69cc
I4406
sV\u8d4f
I1793
sV\u63d0
I143
sV\u8753
I5631
sV\u5ad6
I2809
sV\u91dc
I3749
sV\u56de
I235
sV\u6a61
I2849
sV\u8be0
I3162
sV\u8de4
I3766
sV\u2167
I5569
sV\u6669
I5481
sV\u7eee
I3030
sV\u5773
I4670
sV\u6cfa
I4735
sV}
I5556
sV\u66fe
I544
sV\u5a04
I2293
sV\u7687
I1442
sV\u8712
I4213
sV\u5999
I1879
sV\u949b
I4087
sV\u6028
I2074
sV\u592e
I471
sV\u75b1
I3868
sV\u7f42
I4980
sV\u91c9
I4227
sV\u5858
I2105
sV\u565c
I4741
sV\u68e3
I4105
sV\u836a
I4866
sV\u7470
I2593
sV\u53f5
I4758
sV\u9a84
I2750
sV\u5586
I3669
sV\u7109
I3798
sV\u2013
I4734
sV\u541b
I1756
sV\u8d21
I1446
sV\u63aa
I862
sV\u8bba
I530
sV\u623f
I252
sV\u9647
I3422
sV\u5149
I462
sV\u70c8
I1128
sV\u4f4d
I154
sVS
I806
sV\u62d4
I1471
sV\u98d8
I2397
sV\u6b65
I381
sV\u5899
I1335
sV\u7f2e
I2811
sV\u7ead
I3924
sV\u9f2c
I4555
sV\u9530
I3975
sV\u5632
I2754
sV\u57c7
I3707
sV\u684e
I5407
sV\u84d1
I5224
sV\u6652
I1606
sV\u82d5
I4106
sV\u75db
I1130
sV\u8ff7
I1195
sV\u85fb
I3145
sV\u677c
I5343
sV\u5486
I4577
sV\u6e0d
I3484
sV\u5f17
I2121
sV\u6ea2
I2400
sV)
I322
sV\u7d2b
I1608
sV\u6f37
I4256
sV\u653b
I1181
sV\u80be
I1717
sV\u5c41
I2833
sV\u8d4b
I2150
sV\u4e4d
I3394
sV\u8153
I4838
sV\u6c61
I770
sV\u8be4
I4563
sV\u6069
I1158
sV\u9e6d
I3364
sV\u5173
I91
sV\u76f2
I2317
sV\u867d
I778
sV\u7a83
I1672
sV\u7487
I2957
sV\u9706
I2599
sV\u688f
I5408
sV\u6293
I796
sV\u5b99
I2728
sV\u559d
I1004
sV\u6e20
I1531
sV\u4f36
I4026
sV\u65bd
I373
sV\u843c
I4566
sV\u54c7
I3296
sV\u4ecb
I549
sV\u714a
I5090
sV\u87d1
I4117
sV\u7cd7
I4298
sV\u76db
I1187
sV\u545c
I4630
sV\u70df
I820
sV\u4e60
I548
sV\u8d62
I1690
sV\uff01
I598
sV\u5d82
I4957
sV\u9884
I495
sV\u8c8c
I1633
sV\u6115
I3546
sV\u561b
I2535
sV\u501f
I1010
sV\u8925
I3618
sV\u7ec0
I5258
sV\u5349
I2766
sV\u72c8
I4713
sV\u8e4b
I4401
sV\u6ccc
I2258
sV\u9ad8
I80
sV\u59da
I1895
sV\u94dc
I2051
sV\u88e4
I1882
sV\u7bee
I1775
sV\u9175
I2971
sV\u63fe
I5484
sV\u5f00
I63
sV\u5904
I221
sV\u9606
I5053
sV\u5308
I4099
sV\u900a
I2381
sV\u751c
I1681
sV\u4ea1
I942
sV\u6f20
I2550
sV\u8ba3
I5318
sV\u6328
I2394
sV\u76b1
I2677
sV\u9730
I5246
sV\u9134
I5431
sV\u853c
I3897
sV\u6452
I3758
sV\u5b58
I597
sV\u77db
I1683
sV\u555c
I5006
sV\u4f60
I335
sV\u65e7
I1028
sVj
I2757
sV\u5ced
I3678
sV\u56f1
I4270
sV\u50f5
I2698
sV\u8df7
I3614
sV\u5c82
I3183
sV\u9984
I4915
sV\u6015
I1170
sV\u789a
I4676
sV\uff2b
I5166
sV\u51b4
I5442
sV\u613f
I800
sV\u7fc0
I4781
sV\u9547
I579
sV\u73c8
I3997
sV\u6dcc
I3923
sV\u67d0
I277
sV\u5ed6
I2034
sV\u6865
I968
sV\u6269
I1127
sV\u5373
I543
sV\u9075
I1875
sV\u8a79
I2285
sV\u68fa
I2862
sV\u62fe
I2267
sV\u6000
I947
sV\u568f
I4282
sV\u8116
I2530
sV\u6599
I586
sV\u871a
I5075
sV\u8d1e
I2434
sV\u77a5
I4893
sV\u86af
I4499
sV\u6b32
I1408
sV\u4fb5
I1213
sV\u7136
I203
sV\u55b9
I5227
sV\u773a
I3877
sV\u5bbd
I1387
sV@
I1850
sV\u76cf
I3841
sV\u6458
I2130
sV\u8bdd
I348
sV\u4edf
I4062
sV\u63ed
I1342
sV\u9176
I2918
sV\u75f9
I3743
sV\u8403
I3498
sV\u6382
I3944
sV\u6986
I2385
sV\u900b
I5364
sV\u530d
I4782
sV\u5f15
I437
sV\u53a2
I2096
sV\u9ca8
I2767
sV\u5faa
I1804
sV\u832d
I5287
sV\u62ac
I2207
sV\u68b0
I1983
sV\u6eb4
I5393
sV\u5237
I1499
sV\u9539
I4263
sV\u89c6
I282
sV\u6d49
I5405
sV\u7f55
I2183
sV\u67da
I3323
sV\u6dde
I4085
sV\u79e6
I1484
sV\u5d69
I3477
sV\u606b
I5181
sV\u666f
I742
sV\u51f6
I2101
sV\u94f8
I3078
sV\u57fa
I276
sV\u5dfe
I2362
sV\u8c89
I5421
sV\u9891
I872
sV\uff14
I2137
sV\u9e2a
I5428
sV\u87af
I4971
sV\u8db3
I602
sV\u4eb5
I2997
sV\u8d48
I4384
sV\u544e
I4682
sV\u4fdf
I5540
sV\u90e1
I2674
sV\u55e3
I4404
sV\u62ed
I3096
sV\u68f1
I3558
sV\u8a72
I5681
sV\u5578
I3006
sV\u6886
I5264
sV\u520d
I5314
sV\u970f
I4410
sV\u748e
I5168
sV\u5811
I4885
sV\u7a92
I3059
sV\u5e15
I2125
sV\u63ac
I4183
sV\u8e35
I3723
sV\u75b8
I4987
sV\u88c6
I4289
sV\u6c49
I727
sV\u724d
I5109
sV\u53cc
I685
sV\u94ce
I4389
sV\u59d0
I1007
sV\ufe55
I4347
sV\u6cde
I4251
sV\u9563
I4645
sV\u7eea
I1635
sV\u676f
I1554
sV\u95f8
I2672
sV\u56fa
I1191
sV\u8f89
I1438
sV\u918d
I5504
sV\u548f
I2858
sV\u5e93
I1186
sV\u851a
I3099
sV\u5220
I2649
sV\u9122
I4632
sV\u75a5
I4501
sV\u753a
I3204
sV\u8e48
I2338
sV\u574e
I2669
sV\u7ed3
I293
sV\u7260
I5225
sV\u79fd
I2871
sV\u6b86
I4187
sV\u4f09
I5261
sV\u778e
I3224
sV\u889c
I3098
sV\u6c1f
I3852
sV\u51a2
I4025
sV\u94a4
I5502
sV\u5ba6
I4059
sV\u60ac
I1928
sV\u8d35
I1039
sV\u9739
I4083
sV\u5c3f
I1815
sV\u81c2
I2281
sV\u6545
I651
sV\u8bc6
I692
sV\u7b51
I1146
sVW
I1719
sV\u63d6
I4802
sV\u5361
I648
sV\u5565
I2030
sV\u7be6
I5196
sV\u5f69
I1076
sV\u626b
I1645
sV\u53f6
I1204
sV\u538b
I779
sV\u9a91
I1525
sV\u8216
I5373
sV\u8e1e
I3839
sV\u5320
I3371
sV\u9022
I2167
sV\u5524
I2197
sV\u83ab
I1469
sV\u85af
I2356
sV\u7236
I696
sV\u8340
I5002
sV\u914c
I3240
sV\u564e
I4408
sV\u86d9
I3324
sV\u7360
I4728
sV\u9ee9
I5491
sV\u60ed
I4188
sV\u6cf5
I3274
sV\u76f9
I4110
sV\u8703
I4829
sV\u4e09
I175
sV\u500d
I893
sV\u950f
I4322
sV\u768e
I4935
sV\u5a11
I5306
sV\u9f13
I1126
sV\u5c15
I4249
sV\u95a4
I5130
sV-
I600
sV\u61ac
I3803
sV\u6241
I2917
sV\u6e49
I5026
sV\u51cc
I1311
sV\u5bd0
I4056
sV\u98d2
I4718
sV\u62d6
I1593
sV\u8d5f
I2429
sV\u6ede
I2228
sV\u8bf0
I5115
sV\u54fa
I3246
sV\u6400
I3433
sV\u8385
I4588
sV\u6808
I2924
sV\u548b
I2784
sV\u978d
I2514
sV\u5893
I1339
sV\u7a14
I5004
sV\u4e1c
I284
sV\u75a1
I3028
sV\u5420
I4959
sV\u73a5
I3580
sV\u5224
I789
sV\u82af
I2874
sV\u5fbd
I1088
sV\u793e
I223
sV\u6ec7
I3881
sV\u964c
I2187
sV\u5f52
I1132
sV\u8fdd
I669
sV\u6e5c
I5613
sV\u816e
I3602
sV\u6df1
I405
sV\u8f72
I5198
sV\u9576
I3378
sV\u71f9
I4457
sV\u5e7c
I1317
sV\u8003
I380
sV\u6b8a
I1444
sV\u8098
I3209
sV\u6c1b
I1866
sV\u6a1f
I4088
sV\u94a0
I3087
sV\u57a2
I3159
sV\u5baa
I1821
sV\u8d31
I3130
sV\u70b8
I1123
sV\u804b
I3047
sV\u6345
I2796
sV\u8dc6
I5059
sV\u8bca
I1229
sV\u91ce
I1152
sV\u5ad4
I3497
sV\u65d6
I4982
sV\u4f5d
I4743
sV\u5561
I2079
sV\u9063
I2627
sV\u77e2
I3263
sV\u9e67
I5427
sV\u7bea
I4413
sV\u626f
I2519
sV\u90f8
I2989
sV\u7c7b
I503
sV\u7a7f
I933
sV\u6500
I2129
sV\u558b
I4065
sV\u968d
I4574
sV\u300e
I3734
sV\u9c91
I4546
sV\u5993
I2927
sV\u7b14
I1055
sV\u5520
I3605
sV\u6e32
I3838
sV\u7436
I4290
sV\u783e
I3987
sV\u73cf
I4429
sV\u504e
I3985
sV\u9b54
I1770
sV\u6f5c
I1168
sV\u94e1
I5482
sV\u7560
I5348
sV\u5fe7
I1776
sV\u7968
I297
sVn
I688
sV\u6cf1
I4140
sV\u8e72
I2589
sV\u70f9
I2679
sV\u5178
I1108
sV\u7efd
I3403
sV\u5f7c
I2172
sV\u987e
I930
sV\u6682
I1315
sV\u950b
I1676
sV\u708e
I1860
sV\u5c11
I286
sV\u6717
I1406
sV\u2019
I951
sV\u8198
I5152
sV\u6d1b
I1456
sV\u8f9c
I2820
sV\uff27
I4259
sV\u99a8
I1995
sV\u8c31
I1999
sV\u6bb4
I2305
sV\u9e3d
I3043
sV\u6441
I3535
sV\u6849
I5121
sV\u90ce
I1760
sV\u9ed2
I5546
sV\u5bd4
I5493
sV\u8757
I4126
sV\u8d5b
I708
sV\u62da
I5474
sV\u4e5d
I1119
sV\u9163
I3925
sV\u5265
I2310
sV\u4ef2
I2255
sV\u8bf4
I82
sV\u52fa
I3069
sV\u6600
I4889
sV\u9995
I5327
sV\u7814
I409
sV\u811a
I1150
sV\u6d9d
I3358
sV\u9522
I5267
sV\u7ba9
I4136
sV\u80af
I1194
sV\u6d32
I936
sV\u7736
I3228
sV\u9ebb
I1304
sVD
I907
sV\u4f46
I160
sV\u534e
I358
sV\u6258
I1038
sV\u8ddd
I1163
sV\u803d
I2703
sV\u65ed
I2206
sV\u4e70
I541
sV\u9776
I3284
sV\u900f
I823
sV\u5f11
I5210
sV\u5915
I1361
sV\u8298
I4930
sV\u6e1b
I5636
sV\u7c27
I3955
sV\u9aa8
I1188
sV\u59aa
I4831
sV\u64ac
I2883
sV\u7cbc
I4622
sV\u6b49
I1851
sV\u89ca
I4707
sV\u7f51
I110
sV\u7955
I5662
sV\u8457
I1201
sV\u5761
I1528
sV\u75e2
I4715
sV\u5165
I165
sV\u7fe6
I5399
sV\u5b69
I424
sV\u84ec
I2795
sV\u606f
I394
sV\u88f4
I2765
sV\u51fa
I29
sV\u8681
I3265
sV\u6700
I122
sV\u8a89
I1485
sV\u578b
I421
sV\uff10
I1345
sV\u9e26
I3471
sV\u622e
I3921
sV\u8bb3
I2735
sV\u6c32
I5489
sV\u6dc7
I2771
sV6
I98
sV\u954c
I4196
sV\u9f50
I1083
sV\u7bd3
I3887
sV\u6d5c
I4625
sV\u53e3
I275
sV\u7164
I1365
sV\u5de7
I1662
sV\u826e
I5473
sV\u4f70
I4477
sV\u68f5
I2838
sV\u9676
I1936
sV\u5378
I2470
sV\u9a7e
I995
sV\u8303
I563
sV\u6482
I4186
sV\u8d07
I5552
sV\u540d
I115
sV\u5e11
I5422
sV\u9b13
I4481
sV\u7c92
I2186
sV\u5815
I3167
sV\u8398
I4236
sV\u97a0
I2896
sV\u7d27
I697
sV\u5ea6
I139
sV\u8e31
I4599
sV\u69b4
I3287
sV\u6641
I4810
sV\ufe51
I5023
sV\u5fd0
I3781
sV\u7855
I1912
sV\u59d4
I178
sV\u60da
I3850
sV\u895f
I3377
sV\u74e2
I3915
sV\u5065
I570
sV\u7ee6
I5600
sV\u8ff0
I971
sV\u8981
I36
sV\u8f85
I1670
sV\u5e8f
I997
sV\u5428
I1337
sV\u88ab
I117
sV\u8eaf
I3291
sV\u2030
I3968
sV\u6332
I5104
sV\u90bb
I1552
sV\u7f3a
I1047
sV\u8840
I745
sV\u8e44
I3178
sV\u62c7
I3322
sV\u78cb
I3241
sV\u7ecf
I69
sV\u5d4e
I5544
sV\u9050
I3864
sV\u5352
I3577
sV\u9976
I2930
sV\u8c03
I204
sV\u7392
I5014
sV\u829c
I2254
sV\u661f
I508
sV\u98a0
I2503
sV\u5ba2
I296
sV\u94a8
I4691
sV\u6aac
I2591
sV\u8131
I1164
sV\u66b4
I1248
sV\u563f
I3910
sV\u4ec4
I5106
sV\u81c6
I4222
sV\u87ca
I5041
sV\u5acc
I821
sV\u56d4
I4773
sV[
I1547
sV\u80f0
I3121
sV\u7a77
I2057
sV\u8881
I1784
sV\u9091
I3638
sV\u6c99
I892
sV\u962a
I4179
sV\u6c2e
I2906
sV\u79cb
I1533
sV\u5c4e
I3557
sV\u7960
I3355
sV\u94e9
I5169
sV\u8272
I432
sV\u9876
I1198
sV\u5011
I5541
sV\u7292
I4203
sV\u611b
I5531
sV\u4e9a
I540
sV\u671f
I199
sV\u4f2f
I1472
sV1
I6
sV\u5b37
I3899
sV\u6841
I5207
sV\u4fc4
I1066
sV\u80c6
I1701
sV\u86ca
I4522
sV\u5bcc
I717
sV\u57d4
I2842
sV\u6eda
I1863
sV\u64de
I4739
sV\u70e6
I1723
sV\u696b
I5568
sV\u8bec
I3555
sV\u7b77
I3417
sV\u58f6
I3101
sV\u5efa
I100
sV\u777f
I2567
sV\u8d85
I443
sV\u998d
I3504
sV\u780c
I3387
sV\u5693
I4852
sV\u4e18
I2595
sV\u7ba1
I205
sV\u5a20
I3704
sV\u5c24
I1218
sV\u77a9
I2759
sV\u51bd
I3668
sV\u773e
I5332
sV\u60c7
I4591
sV\u7acb
I280
sV\u5152
I5589
sV\u8fd9
I31
sV\u6e58
I1897
sV\u50e7
I2655
sV\u97e9
I725
sV\u8f6e
I980
sV\u5e78
I1030
sV\u6982
I1431
sV\u590d
I592
sV\u7f8e
I166
sV\u6817
I3288
sV\u621b
I4079
sV\u9ca4
I3544
sV\u53a6
I1041
sV\u96a8
I4919
sV\u8331
I4165
sV\u7eb8
I1258
sV\u523b
I991
sV\u70bc
I1858
sV\u89c2
I454
sV\u6d45
I2379
sV\u6749
I2563
sV\u52d0
I4920
sV\u8857
I832
sV\u6bd6
I5047
sV\u4f59
I658
sV\u67de
I4903
sV\u75ea
I2710
sV\u88ec
I5353
sV\u4fee
I749
sV\u4f83
I2075
sV\u6708
I55
sV\u5b8b
I1137
sV\u988d
I3042
sV\u4f18
I628
sV\u8c1a
I4086
sV\u7ca5
I1984
sV\u5728
I8
sV\u8bab
I4841
sV\u87b3
I5057
sV\u763e
I2569
sV\u8d44
I185
sV\u9554
I5379
sV\u6f58
I1579
sV\u615c
I5615
sV\u7b60
I3928
sV\u62f1
I3294
sVr
I817
sV\u9a76
I1037
sV\u70fd
I3797
sV\u517c
I1573
sV\u5211
I853
sV\u9713
I3927
sV\u7092
I1619
sV\u5415
I1790
sV\u8f98
I4047
sV\u631b
I3813
sV\u201d
I12
sV\u819c
I2031
sV\uff23
I3880
sV\u54aa
I2897
sV\u8231
I2064
sV\u63b0
I3908
sV\u5937
I2553
sV\u7fb8
I5275
sV\u533b
I299
sV\u88c2
I1716
sV\u9ece
I1853
sV\u7455
I3493
sV\u55d4
I4368
sV\u4e59
I2210
sV\u5c65
I1482
sV\u5669
I2853
sV\u83f0
I5114
sV\u6773
I4538
sV\u7977
I3849
sV\u757f
I4659
sV\u56fe
I441
sV\u8d81
I2113
sV\u9f8d
I4584
sV\u7410
I2847
sV\u679d
I2448
sV\u9526
I1785
sV\u59b9
I1348
sV\u94bb
I2021
sV\u7b3a
I4568
sVH
I1292
sV\u9e4c
I4314
sV\u594e
I2636
sV\u4ed7
I2291
sV\u56e7
I2501
sV\u65f1
I2537
sV\u567c
I4434
sV\u5511
I4444
sV\u7792
I2682
sV\u5315
I3543
sV\u6e17
I2680
sV\u621f
I4626
sV\u9aa4
I2533
sV\u90a8
I4211
sV\u64b0
I2558
sV\u8335
I3551
sV\u5e37
I2920
sV\u543b
I1910
sV\u6d41
I374
sV\u8fc2
I4533
sV\u83ca
I2830
sV\uff4d
I5161
sV\u54d0
I4822
sV\u6dd6
I4763
sV\u845b
I2363
sV\u5169
I5665
sV\u6073
I3022
sV\u5bfa
I1803
sV\u8089
I894
sV\u6108
I2047
sV\u5d8b
I5253
sV\uff0c
I1
sV\u5b8f
I1487
sV\u9e22
I5278
sV\u7aa5
I3245
sV\u4ead
I2306
sV\u8baf
I903
sV\u81b3
I2415
sV\u69c3
I4897
sV\u4e42
I5265
sV\u9550
I2071
sV\u4fd7
I1520
sV\u88d9
I2273
sV\u675c
I1474
sV\u59e3
I3507
sV\u7168
I4995
sV\u4f6c
I3310
sV\u886e
I4258
sV\u5978
I1742
sV\u8707
I4608
sV\u628a
I365
sV\u788e
I1812
sV\u5411
I246
sV\u631f
I2951
sV\u54a6
I5118
sV\u52aa
I1089
sV\u8431
I3510
sV\u65b0
I49
sV\u8235
I3926
sV\u63b4
I5078
sV\u533f
I2670
sV\u6c41
I2095
sV\u5fcc
I2226
sV\u98ce
I354
sV\u53d4
I1806
sV\u835f
I3419
sV\u5c61
I1978
sV\u7ee2
I4071
sV\u74e6
I1592
sV\u8389
I1792
sV\u6208
I2436
sV\u9791
I5266
sV\u7610
I5629
sV\u891a
I3966
sV\u7fa1
I2457
sV\u79a5
I4091
sV\u5824
I2664
sV\u73a9
I1005
sV\u5228
I4013
sV\u8eab
I207
sV\u82b3
I1641
sV\u9cb7
I4586
sV\uff36
I4745
sV\u5bb9
I529
sV\u793a
I163
sV\u55bd
I4221
sV\u733e
I4237
sV\u9650
I633
sV\u8bd9
I3934
sV\u6a58
I2529
sV\u85dd
I5456
sV\u5ae3
I1848
sV\u54e7
I4769
sV\u67f1
I2086
sV\u8572
I4308
sV\u61f5
I3446
sV\u997a
I2919
sV\u547c
I1000
sV\u4f01
I385
sV\u6d82
I2114
sV\u849c
I2676
sV\u7a23
I4007
sV\u98a4
I3399
sV\u57a6
I3169
sV\u4e2b
I3427
sV\u8d2d
I486
sV\u25b2
I3275
sV\u60b4
I3884
sV\u7ab8
I5011
sV\u563b
I3469
sV\u4ec0
I623
sV\u87c6
I4595
sV\u6349
I2416
sV\u81ca
I5415
sV\u7751
I4350
sV\u7155
I5403
sV_
I2956
sV\u5965
I906
sV\u86f0
I4275
sV\u6273
I3401
sV\u80f4
I5247
sV\u767b
I746
sV\u707f
I2507
sV\u8e81
I2781
sV\u8885
I4382
sV\u2606
I4514
sV\u5f8b
I618
sV\u9c8d
I2349
sV\u9095
I4999
sV\u821e
I1001
sV\u5f20
I212
sV\u8fab
I3426
sV\uff09
I232
sV\u03b3
I5009
sV\u783a
I3494
sV\u54bd
I2722
sV\u8944
I2965
sV\u84dd
I1369
sV\u7af9
I1494
sV\u987a
I927
sV\u557c
I3796
sV\u4e01
I1393
sV\u6c82
I3885
sV\u5c0d
I5235
sV\u6d17
I1167
sV\u671b
I535
sV\u611f
I331
sV\u4f2b
I4420
sV\u8c2d
I2271
sV5
I59
sV\u7bb8
I5574
sV\u573b
I5492
sV\u75bc
I1780
sV\u513f
I302
sV\u6845
I4324
sV\u86c6
I4458
sV\u6249
I4354
sV\u7c4d
I1266
sV\u68da
I1943
sV\u5e61
I4365
sV\u5269
I1412
sV\u8dec
I5136
sV\u81f4
I560
sV\u5ef6
I1063
sV\u52fe
I2523
sV\u9785
I4480
sV\u620c
I4255
sV\u8f95
I4604
sV\u6e14
I1955
sV\u7599
I3747
sV\u5a1c
I1288
sV\u67a5
I5604
sV\u6da9
I2888
sV\u5fb5
I5591
sV\u82b7
I3438
sV\u673a
I97
sV\u6d3e
I802
sV\u9644
I908
sV\u60cb
I3680
sV\u6cd3
I3463
sV\u87e5
I5117
sV\u6664
I3080
sV\u30eb
I4993
sV\u73ed
I652
sV\u5e74
I17
sV\u6bfd
I4478
sV\u800b
I4541
sV\u7f8a
I1598
sV\u8c13
I1340
sV\u6b92
I4167
sV\u579a
I4341
sV\u9a9c
I5229
sV\u80a0
I1582
sV\u86a4
I4582
sV\u72ac
I2414
sV\u78b0
I1703
sV\u64b8
I5646
sV\u634d
I3428
sV\u8bd2
I4710
sV\u4ed4
I1720
sV\u5b5d
I2010
sV\u8463
I1147
sV\u706b
I391
sV\u55ee
I3814
sV\u7c73
I494
sV\u6e7f
I1747
sV\u5583
I4155
sV\u9685
I3273
sV\u5b87
I1279
sV\u828d
I4931
sV\u6f14
I388
sV\u961a
I4505
sV\u7a9d
I2117
sV\u8222
I5419
sV\u8e2a
I1636
sV\u52ad
I4486
sV\u5eb5
I3873
sV\u83b7
I485
sV\u5242
I1618
sV\u7bc7
I1568
sV\u61cb
I5340
sV\u67cf
I1914
sV\u53d7
I222
sV\u7b5c
I4519
sV\u80e1
I1025
sV\u72ed
I2751
sV\u7ef5
I2274
sVv
I1878
sV\u9503
I4943
sV\u5c09
I3357
sV\u4e15
I4306
sV\u7317
I4804
sV\uff1f
I318
sV\u6b27
I1234
sV\u9e35
I4232
sV\u51c0
I1415
sV\u624d
I452
sV\u6851
I2054
sV\u62e2
I2984
sV\u54ee
I3517
sV\u6377
I1677
sV\u4e93
I4562
sV\u6c14
I274
sV\u5618
I3102
sV\u951a
I4084
sV\u63a1
I5193
sV\u65a5
I2491
sV\u8d2a
I1581
sV\u94af
I5543
sV
I900
sV\u6f3e
I4177
sV\u9e48
I4761
sV\u5d4a
I5288
sVL
I1323
sV\u83e1
I4697
sV\u2162
I4172
sV\u8fe9
I4438
sV\u7bf1
I3667
sV\u9972
I2630
sV\u69fd
I1951
sV\u9698
I4355
sV\u989c
I1539
sV\u5f9e
I5523
sV\u522b
I360
sV\u70ac
I3485
sV\u542f
I950
sV\u7545
I1527
sV\u54c4
I2321
sV\uff49
I5124
sV\u89d2
I834
sV\u9057
I1106
sV\u4f69
I1888
sV\u4ffe
I4854
sV\u5783
I1569
sV\u3002
I3
sV\u7504
I2409
sV\u5987
I932
sV\uff08
I231
sV\u7699
I3829
sV\u591c
I888
sV\u62a1
I4329
sV\u8c2a
I5356
sV\u643a
I1537
sV\u5a46
I1291
sV\u5c4a
I683
sV\u814c
I3086
sV\u65cf
I899
sV\u8d54
I1275
sV\u795c
I5472
sV\u82e1
I4677
sV\u84e5
I4848
sV\u70ed
I470
sV\u516c
I41
sV\u5b70
I3611
sV\u66f9
I1590
sV\u847a
I4845
sV\u5201
I3466
sV\u7117
I4756
sV\u9798
I4111
sV\u7b1b
I3512
sV\u549a
I3936
sV\u5e9e
I2153
sV\u83a0
I4592
sV\u8fa8
I2250
sV\u71ac
I2477
sV\u552f
I1176
sV\u67b8
I3402
sV\u604d
I3421
sV\u86ce
I3977
sV\u6c55
I3334
sV\u9157
I3695
sV\u5659
I4947
sV\u7ede
I3319
sV\u6cea
I1746
sV\u6177
I3677
sV\u6b7b
I608
sV\u5e87
I3109
sV\u878d
I808
sV\u660c
I1228
sV\u7199
I2316
sV\u5018
I3639
sV\u5e1c
I2787
sV\u65a1
I4113
sV\u63a5
I241
sV\u8d26
I1135
sV\u57ad
I4692
sV\u5bb5
I2549
sV\u6536
I259
sV\u633a
I1675
sV\u70c3
I4338
sV\u5742
I3686
sV\u7ec7
I675
sV\u6868
I3962
sV\u77ed
I859
sV\u566c
I3717
sV\u916e
I3173
sV\u5a74
I1388
sV\u5501
I3420
sV\u9003
I1242
sV\u5305
I410
sV\u840b
I5103
sV\u618e
I4325
sV\u8813
I5689
sV\u7617
I5443
sV\u539a
I1394
sV\u599e
I3055
sV\u542b
I828
sV\u972d
I4877
sV\u60b8
I3506
sV\u54c0
I2476
sV\u7949
I3141
sV\u6d51
I2534
sV\u5f5d
I3248
sVc
I1148
sV\u6de6
I5113
sV\u80f8
I1481
sV\u5f87
I3756
sV\u7099
I3444
sV\u62a5
I96
sV\u8c26
I2404
sV\u5cb1
I3918
sV\u8bbf
I580
sV\u683e
I4011
sV\u9540
I3468
sV\u71c3
I1273
sV\u65cb
I2043
sV\u5a4a
I3930
sV\u874c
I5062
sV\u63cf
I1861
sV\u8d50
I3002
sV\u4e52
I2791
sV\u9edd
I4337
sV\u5bdf
I582
sV\u82e5
I1202
sV\u906e
I2524
sV\u60f9
I2377
sV\u827a
I743
sV\u4f7c
I3524
sV\u5401
I1889
sV\u7682
I2861
sV\u830f
I5194
sV\u8913
I4945
sV\u5496
I1958
sV\u7d1b
I5368
sV\u589e
I270
sV\u6123
I3528
sV\u77ac
I2091
sV\u7bb4
I4333
sV9
I103
sV\u80ce
I1630
sV\u8f67
I3031
sV\u97ec
I3295
sV\u50ee
I5434
sV\u6777
I4387
sVT
I891
sV\u7600
I4154
sV\u8f91
I1827
sV\u6e10
I1253
sV\u9716
I2836
sV\u5218
I499
sV\u892a
I3697
sV\u90af
I2992
sV\u732e
I1062
sV\u6b3e
I500
sV\u9640
I3666
sV\u8854
I1946
sV\u54d7
I3125
sV\u6064
I3144
sV\u8be9
I4484
sV\u7ff1
I4543
sV\u8776
I2807
sV\u817a
I2213
sV\u5b09
I3235
sV\u4f11
I953
sV\u9c9c
I870
sV\u781f
I5479
sV\u5b9e
I75
sV\u80a4
I1416
sV\u6c27
I1661
sV\u4fa6
I1564
sV\u952d
I4416
sV\u7eb0
I4550
sV\u5a33
I4832
sV\u78b4
I4633
sV\u8339
I3150
sV\u4e3b
I102
sV\u8d3d
I5505
sV\u6cbc
I3424
sV\u7741
I2944
sV\u7b49
I87
sV\u65e2
I1171
sV\u766b
I3609
sV\u94ec
I3989
sV\u706f
I1329
sV\u53ee
I2801
sV\u5df2
I161
sV\u7b08
I4265
sV\u9616
I3857
sV\u901a
I120
sV\u7c9d
I5633
sVi
I638
sV\u54ad
I4257
sV\u85b7
I4750
sV\u6636
I5043
sV\u6bd3
I3201
sV\u9cdd
I5217
sV\u6760
I2772
sV\u2462
I4204
sV\u80e5
I4367
sV\u556c
I4121
sV\u5f70
I2133
sV\u5974
I2885
sVz
I2561
sV\u6cfd
I1183
sV\u810f
I1497
sV\u4e11
I1991
sV\u7f1b
I4826
sV\u5a9e
I4565
sV\u6323
I2040
sV\u4ea6
I1754
sV\u8ba8
I1058
sV\u8046
I3568
sV\u8239
I1013
sV\u63b8
I3816
sV\u94c2
I4217
sV\u51c4
I3254
sV\u4fd0
I3600
sV\u76d6
I1057
sV\u7ade
I1165
sV\u8363
I1095
sV\u64e2
I4865
sV\u6ee6
I4395
sV\u776b
I3243
sV\u6577
I2776
sV\u9981
I4620
sV\u7800
I4937
sV\u9f85
I5214
sV\u5287
I4975
sV\u4e8f
I2041
sV\u6614
I2692
sV\u5c18
I1873
sV\u4e24
I170
sV\u65a9
I2794
sV\u94b3
I3588
sV\u57b5
I4156
sV\u653e
I288
sV\u9e44
I5570
sV\u5146
I2347
sV\u68cb
I1881
sV\u574a
I1979
sVP
I730
sV\u8654
I4269
sV\u6860
I4594
sV\u8fe5
I3700
sV\u85e9
I3646
sV?
I1578
sV\u6df9
I3137
sV\u63fd
I2382
sV\u857e
I2168
sV\u5509
I4307
sV\u8e0f
I1903
sV\u6d8e
I4202
sV\u6392
I429
sV\u7a17
I4861
sV\u5996
I3014
sV\u701b
I3705
sV\u761f
I3950
sV\u9131
I4168
sV\u76b4
I5480
sV\u8d39
I255
sV\u6cb8
I2646
sV\u62bc
I1798
sV\u7941
I3490
sV\uff45
I4746
sV\u54c8
I1230
sV\u8dce
I4880
sV\u6151
I2613
sV\u905b
I3808
sV\u965f
I5299
sV\u75de
I4242
sV\u4f65
I5234
sV\u61e6
I4239
sV\u786b
I2576
sV\u5dee
I857
sV\u53f2
I681
sV\u607b
I5056
sV\u4ffa
I3767
sV\u9881
I1847
sV\u7f04
I4129
sV\u9489
I2571
sV\u4f8f
I4246
sV\u8695
I3809
sV\u6714
I3542
sV\u6ea5
I3652
sV\u4f24
I631
sV\u8026
I5269
sV\u64a9
I3701
sV\u8bb7
I4319
sV\u81bb
I4846
sV\u6e3a
I3733
sV\u8150
I920
sV\u8038
I3582
sV\u51db
I3604
sV\u57df
I690
sV\u88e1
I5270
sV\u6960
I2266
sV\u7aed
I2602
sV\u70f1
I4875
sV\u5170
I897
sV\u62fd
I2976
sV\u5e05
I1534
sV\u5409
I1115
sV\u8513
I2352
sV\u6292
I3194
sV\u5e9a
I2850
sV\u771f
I431
sV\u592b
I532
sV\u5f2f
I2177
sV\u9635
I1302
sV\u6db8
I4095
sV\u63bc
I5192
sV\u82d2
I5197
sV\u6655
I2376
sV\u7eda
I3632
sV\u8d63
I3179
sV\u8367
I2484
sV\u60e6
I3862
sV\u8df8
I5641
sV\u677f
I868
sV\u7a00
I1977
sV\u6210
I47
sV\u6414
I4886
sV\u5e18
I2683
sV\u501c
I5303
sV\u971e
I1962
sV\u6ba1
I2652
sV\uff2e
I3974
sV\u55b5
I3730
sV\u6d3a
I5216
sV\u84bf
I4882
sV\u7ec3
I1015
sV\u5942
I4686
sV\u9648
I479
sV\u554a
I1399
sV\u884c
I33
sV\u4f4e
I524
sV\u54df
I3851
sV\u8be1
I3212
sV\u4ee3
I233
sV\u6c64
I1293
sV\u6668
I1022
sV\u79ed
I4726
sV\u586c
I4262
sV\u61fd
I4963
sV\u8c0f
I3835
sV\u6f8e
I3724
sV\u6e23
I2462
sV\u6027
I168
sV\u72b0
I5221
sV\u9535
I3777
sV\u60bc
I2695
sV\u8fce
I994
sV\u6555
I4835
sVg
I1284
sV\u6877
I5588
sV\u9a81
I3405
sV\u9c85
I5066
sV\u7708
I4267
sV\u888d
I2943
sV\u5f18
I2263
sV\u8822
I3272
sV\u6ca5
I3318
sV\u52b1
I1101
sV\u663e
I466
sV\u6bcb
I3307
sV\u544a
I305
sV\u6dcf
I5592
sV\u4e4e
I962
sV\u8350
I1331
sV\u67d3
I787
sV\u59d7
I3104
sV\u7f58
I5325
sV\u53db
I2608
sV\u90dd
I2482
sV\u715c
I3396
sV\u4fe3
I5573
sV\u6768
I722
sV\u9e6e
I5069
sV\u72f1
I1777
sV\u5370
I847
sV\u6ef9
I5122
sV\u867e
I2642
sV\u5a01
I852
sV\u5609
I1344
sV\u8713
I5307
sV\u731b
I1846
sV\u5c9a
I3200
sV\u751f
I30
sV\u6127
I2716
sV\u87a8
I3948
sV\u73b0
I51
sV\u5733
I1424
sV\u75b4
I3759
sV\u8e39
I3467
sV=
I3492
sV\u6251
I1885
sV\u7ad6
I2740
sV\u62e6
I1949
sV\u95f4
I151
sV\u6977
I3239
sV\u8ff8
I3812
sV\u637b
I5582
sV\u81fc
I4961
sV\u5883
I561
sV\u9189
I1940
sV\u8f8d
I3348
sV\u6e0c
I4696
sV\u6410
I4052
sV\u911e
I4479
sV\u6da1
I2863
sV\u61a9
I4038
sV\u9cab
I4552
sV\u55b1
I4360
sV\u90b3
I5050
sV\u6b3a
I2331
sV\u5546
I319
sV\u534a
I691
sV\u7f0e
I4392
sV\u765c
I5238
sV\u52df
I2367
sV\u6c60
I1532
sV\u8be5
I264
sV\u6068
I2220
sV\u996e
I931
sV\u8d76
I887
sV\u817e
I1439
sV\u5b05
I4358
sV\u7586
I1073
sV\u8c0b
I1184
sV\u4f0d
I1373
sV\u9898
I191
sV\u741b
I3508
sV\u5b9a
I105
sV\u969c
I739
sV\u6627
I3046
sV\u7eac
I3058
sV\u9531
I5048
sV\u6f4d
I3454
sV\u89ce
I4708
sV\u6551
I665
sV\u87d2
I3460
sV\u6355
I1297
sV\u575d
I2412
sV\u8863
I970
sV\u65e6
I1159
sV\u63ea
I3286
sV\u59ee
I5377
sV\u88f8
I1642
sV\u627f
I687
sV\u9c81
I1278
sV\u5983
I2103
sV\u9a85
I3893
sV\u571c
I5035
sV\u901e
I3443
sV\u6ca1
I171
sV\u03b1
I4461
sV\u8e22
I2427
sV\u8426
I3959
sV\u822a
I699
sV\u5ead
I735
sV\u54b1
I2445
sV\u52b5
I5329
sV\u79c3
I3953
sV\u5e42
I1352
sV\u9b44
I2900
sV\u5446
I2046
sV\u6dcb
I2455
sV\u524a
I2449
sV\u6bcf
I334
sV\u8354
I3464
sV\u5fd7
I557
sV\u98d9
I2654
sV\u53df
I5145
sV\u6d60
I5411
sV\u6b64
I157
sV\u2466
I5558
sV\u6168
I2290
sV\u7eed
I415
sV\u5f6c
I2144
sV\u5570
I4268
sV\u9672
I5038
sV\u5374
I610
sV~
I2163
sV\u5c01
I1134
sV\u7e82
I4116
sV\u5a05
I2039
sV\u9707
I1295
sV\u728a
I4618
sV\u4e0d
I15
sV\u8113
I4035
sV\uff17
I2301
sV\u5c96
I4010
sV\u5a9a
I3075
sV\u4ea2
I3410
sV\u8ba4
I281
sV\u81a8
I3007
sV\u9e2d
I2270
sV\u7c41
I3791
sV\u5bc4
I1749
sV\u94c6
I4424
sV\u6e4d
I4598
sV\u7cd6
I1372
sV\u955b
I4689
sV\u6ee2
I4681
sV\u64e6
I1952
sV\u58ee
I1651
sV\u95f0
I4224
sV\u7173
I4922
sV\u9985
I2775
sV\u4e8b
I90
sV\u6014
I4744
sV\u5a18
I1465
sV\u759d
I4820
sV\u6fa1
I2419
sV\u8d22
I656
sV\u63a9
I2202
sV\u7532
I1285
sV\u51b5
I427
sV\u80bf
I1841
sV\u6ecb
I1755
sV\u8c4c
I4414
sV\u8650
I2272
sV\u62d3
I1715
sV\u8054
I344
sV\u56db
I390
sV\u745c
I2835
sV\u89e5
I4729
sV\u83e9
I3843
sV\u8f76
I3621
sV\u718a
I1479
sV\u949c
I5092
sV\u88a4
I4351
sV\uff1c
I5352
sV\u853d
I2538
sV\u64bc
I2633
sV\uff41
I5397
sV\u91ca
I1117
sV\u6751
I337
sV\u6155
I2238
sV\u5b59
I941
sV\u965b
I4646
sV\u73de
I3907
sV\u5bee
I4398
sV\u55f2
I4340
sV\u90f4
I3687
sV\u4ff6
I4064
sV\u607f
I4661
sV\u7f00
I3622
sV\u5b83
I753
sV\u9885
I2911
sV\u5587
I3303
sV\u4f8b
I641
sV\u300a
I138
sV\u6710
I5371
sV\u4f20
I366
sV\u8c22
I915
sV*
I2778
sV\u5cad
I1727
sV\u7a2e
I5638
sV\u623e
I5163
sV\u5c42
I700
sV\u75c7
I1124
sV\u8d4c
I1607
sV\u8154
I2099
sV\u94dd
I2912
sV\u755c
I2304
sV\u9a6e
I4181
sV\u76f1
I5068
sV\u5174
I792
sV\u8e76
I4904
sV\u827e
I1762
sV\u5e01
I917
sV\u9b03
I4836
sV\u7686
I2217
sV\u708a
I4017
sV\u6492
I2045
sV\u5e96
I5532
sV\u529e
I244
sV\u6b23
I1688
sV\u2229
I5501
sV\u592f
I3009
sV\u9631
I2887
sV\u77b0
I3470
sV\u9035
I4813
sV\u843d
I514
sV\u65bc
I4006
sV\u7e41
I1454
sV\u7845
I3192
sV\u96c6
I383
sV\u53c8
I456
sV\u90ca
I1967
sV\u6055
I4131
sV\u975b
I5590
sV\u72de
I4840
sV\u4e61
I667
sV\u6ce2
I977
sV\u66e6
I3135
sV\u796f
I3854
sV\u54f2
I2166
sV\u6d77
I155
sV\u4ef6
I251
sV\u8bf8
I1673
s.